---
triple:          'arm64-apple-darwin'
binary-path:     main
relocations:
  - { offset: 0x12612, size: 0x8, addend: 0x0, symName: __ZStL8__ioinit, symObjAddr: 0xA9B1B, symBinAddr: 0x100024000, symSize: 0x0 }
  - { offset: 0x14151, size: 0x8, addend: 0x0, symName: __ZSt8_DestroyI6ShaderEvPT_, symObjAddr: 0xDDEC, symBinAddr: 0x100011CE4, symSize: 0x20 }
  - { offset: 0x14183, size: 0x8, addend: 0x0, symName: __ZSt8_DestroyI5ShapeEvPT_, symObjAddr: 0xDDCC, symBinAddr: 0x100011CC4, symSize: 0x20 }
  - { offset: 0x141B5, size: 0x8, addend: 0x0, symName: __ZNSt14_Sp_ebo_helperILi0ESaIvELb1EE6_S_getERS1_, symObjAddr: 0xDDB8, symBinAddr: 0x100011CB0, symSize: 0x14 }
  - { offset: 0x14207, size: 0x8, addend: 0x0, symName: __ZNSt23_Sp_counted_ptr_inplaceI6ShaderSaIvELN9__gnu_cxx12_Lock_policyE2EE5_Impl8_M_allocEv, symObjAddr: 0xDD9C, symBinAddr: 0x100011C94, symSize: 0x1C }
  - { offset: 0x14255, size: 0x8, addend: 0x0, symName: __ZNSt23_Sp_counted_ptr_inplaceI5ShapeSaIvELN9__gnu_cxx12_Lock_policyE2EE5_Impl8_M_allocEv, symObjAddr: 0xDD80, symBinAddr: 0x100011C78, symSize: 0x1C }
  - { offset: 0x14283, size: 0x8, addend: 0x0, symName: __ZNSt23_Sp_counted_ptr_inplaceI6ShaderSaIvELN9__gnu_cxx12_Lock_policyE2EE14_M_get_deleterERKSt9type_info, symObjAddr: 0xDD08, symBinAddr: 0x100011C00, symSize: 0x78 }
  - { offset: 0x142CF, size: 0x8, addend: 0x0, symName: __ZNSt23_Sp_counted_ptr_inplaceI6ShaderSaIvELN9__gnu_cxx12_Lock_policyE2EE10_M_destroyEv, symObjAddr: 0xDCA4, symBinAddr: 0x100011B9C, symSize: 0x64 }
  - { offset: 0x14389, size: 0x8, addend: 0x0, symName: __ZNSt23_Sp_counted_ptr_inplaceI6ShaderSaIvELN9__gnu_cxx12_Lock_policyE2EE10_M_disposeEv, symObjAddr: 0xDC58, symBinAddr: 0x100011B50, symSize: 0x4C }
  - { offset: 0x14404, size: 0x8, addend: 0x0, symName: __ZNSt23_Sp_counted_ptr_inplaceI6ShaderSaIvELN9__gnu_cxx12_Lock_policyE2EED0Ev, symObjAddr: 0xDC30, symBinAddr: 0x100011B28, symSize: 0x28 }
  - { offset: 0x1442E, size: 0x8, addend: 0x0, symName: __ZNSt23_Sp_counted_ptr_inplaceI6ShaderSaIvELN9__gnu_cxx12_Lock_policyE2EED1Ev, symObjAddr: 0xDBFC, symBinAddr: 0x100011AF4, symSize: 0x34 }
  - { offset: 0x14458, size: 0x8, addend: 0x0, symName: __ZNSt23_Sp_counted_ptr_inplaceI5ShapeSaIvELN9__gnu_cxx12_Lock_policyE2EE14_M_get_deleterERKSt9type_info, symObjAddr: 0xDB84, symBinAddr: 0x100011A7C, symSize: 0x78 }
  - { offset: 0x144A4, size: 0x8, addend: 0x0, symName: __ZNSt23_Sp_counted_ptr_inplaceI5ShapeSaIvELN9__gnu_cxx12_Lock_policyE2EE10_M_destroyEv, symObjAddr: 0xDB20, symBinAddr: 0x100011A18, symSize: 0x64 }
  - { offset: 0x1455E, size: 0x8, addend: 0x0, symName: __ZNSt23_Sp_counted_ptr_inplaceI5ShapeSaIvELN9__gnu_cxx12_Lock_policyE2EE10_M_disposeEv, symObjAddr: 0xDAD4, symBinAddr: 0x1000119CC, symSize: 0x4C }
  - { offset: 0x145D9, size: 0x8, addend: 0x0, symName: __ZNSt23_Sp_counted_ptr_inplaceI5ShapeSaIvELN9__gnu_cxx12_Lock_policyE2EED0Ev, symObjAddr: 0xDAAC, symBinAddr: 0x1000119A4, symSize: 0x28 }
  - { offset: 0x14603, size: 0x8, addend: 0x0, symName: __ZNSt23_Sp_counted_ptr_inplaceI5ShapeSaIvELN9__gnu_cxx12_Lock_policyE2EED1Ev, symObjAddr: 0xDA78, symBinAddr: 0x100011970, symSize: 0x34 }
  - { offset: 0x14625, size: 0x8, addend: 0x0, symName: __ZNSt10_Head_baseILm0ERKiLb0EE7_M_headERS2_, symObjAddr: 0xDA60, symBinAddr: 0x100011958, symSize: 0x18 }
  - { offset: 0x1464E, size: 0x8, addend: 0x0, symName: __ZNSt10_Head_baseILm0EOiLb0EE7_M_headERS1_, symObjAddr: 0xDA48, symBinAddr: 0x100011940, symSize: 0x18 }
  - { offset: 0x14677, size: 0x8, addend: 0x0, symName: __ZNSt11_Tuple_implILm0EJRKiEE7_M_headERS2_, symObjAddr: 0xDA2C, symBinAddr: 0x100011924, symSize: 0x1C }
  - { offset: 0x146A1, size: 0x8, addend: 0x0, symName: __ZNSt11_Tuple_implILm0EJOiEE7_M_headERS1_, symObjAddr: 0xDA10, symBinAddr: 0x100011908, symSize: 0x1C }
  - { offset: 0x146CB, size: 0x8, addend: 0x0, symName: __ZSt12__get_helperILm0ERKiJEERT0_RSt11_Tuple_implIXT_EJS2_DpT1_EE, symObjAddr: 0xD9F4, symBinAddr: 0x1000118EC, symSize: 0x1C }
  - { offset: 0x1472B, size: 0x8, addend: 0x0, symName: __ZNSt12__shared_ptrI5ShapeLN9__gnu_cxx12_Lock_policyE2EEC2Ev, symObjAddr: 0xD9C8, symBinAddr: 0x1000118C0, symSize: 0x2C }
  - { offset: 0x1474D, size: 0x8, addend: 0x0, symName: __ZSt12__get_helperILm0EOiJEERT0_RSt11_Tuple_implIXT_EJS1_DpT1_EE, symObjAddr: 0xD9AC, symBinAddr: 0x1000118A4, symSize: 0x1C }
  - { offset: 0x14796, size: 0x8, addend: 0x0, symName: __ZSt7forwardIRKiEOT_RNSt16remove_referenceIS2_E4typeE, symObjAddr: 0xD998, symBinAddr: 0x100011890, symSize: 0x14 }
  - { offset: 0x147C8, size: 0x8, addend: 0x0, symName: __ZSt3getILm0EJRKiEERNSt13tuple_elementIXT_ESt5tupleIJDpT0_EEE4typeERS6_, symObjAddr: 0xD97C, symBinAddr: 0x100011874, symSize: 0x1C }
  - { offset: 0x1480B, size: 0x8, addend: 0x0, symName: __ZNSt12_Vector_baseIfSaIfEE17_M_create_storageEm, symObjAddr: 0xD91C, symBinAddr: 0x100011814, symSize: 0x60 }
  - { offset: 0x14876, size: 0x8, addend: 0x0, symName: __ZNSt10shared_ptrI5ShapeEC1Ev, symObjAddr: 0xD8FC, symBinAddr: 0x1000117F4, symSize: 0x20 }
  - { offset: 0x1489F, size: 0x8, addend: 0x0, symName: __ZSt7forwardIOiEOT_RNSt16remove_referenceIS1_E4typeE, symObjAddr: 0xD8E8, symBinAddr: 0x1000117E0, symSize: 0x14 }
  - { offset: 0x148D1, size: 0x8, addend: 0x0, symName: __ZSt3getILm0EJOiEERNSt13tuple_elementIXT_ESt5tupleIJDpT0_EEE4typeERS5_, symObjAddr: 0xD8CC, symBinAddr: 0x1000117C4, symSize: 0x1C }
  - { offset: 0x1497D, size: 0x8, addend: 0x0, symName: __ZNSt4pairIKiSt10shared_ptrI5ShapeEEC1IJRS0_EJLm0EEJEJEEERSt5tupleIJDpT_EERS7_IJDpT1_EESt12_Index_tupleIJXspT0_EEESG_IJXspT2_EEE, symObjAddr: 0xD880, symBinAddr: 0x100011778, symSize: 0x4C }
  - { offset: 0x14A26, size: 0x8, addend: 0x0, symName: __ZNSt12_Vector_baseIfSaIfEEC2EmRKS0_, symObjAddr: 0xD82C, symBinAddr: 0x100011724, symSize: 0x54 }
  - { offset: 0x14ADC, size: 0x8, addend: 0x0, symName: __ZNSt4pairIKiSt10shared_ptrI5ShapeEEC1IJOiEJLm0EEJEJEEERSt5tupleIJDpT_EERS7_IJDpT1_EESt12_Index_tupleIJXspT0_EEESG_IJXspT2_EEE, symObjAddr: 0xD7E0, symBinAddr: 0x1000116D8, symSize: 0x4C }
  - { offset: 0x14B9A, size: 0x8, addend: 0x0, symName: __ZNSt4pairIKiSt10shared_ptrI5ShapeEEC1IJRS0_EJEEESt21piecewise_construct_tSt5tupleIJDpT_EES8_IJDpT0_EE, symObjAddr: 0xD7A4, symBinAddr: 0x10001169C, symSize: 0x3C }
  - { offset: 0x14C14, size: 0x8, addend: 0x0, symName: __ZNSt11_Tuple_implILm0EJRKiEEC2EOS2_, symObjAddr: 0xD77C, symBinAddr: 0x100011674, symSize: 0x28 }
  - { offset: 0x14C6B, size: 0x8, addend: 0x0, symName: __ZNSt6vectorIfSaIfEEC1ERKS1_, symObjAddr: 0xD668, symBinAddr: 0x100011560, symSize: 0x114 }
  - { offset: 0x14D7A, size: 0x8, addend: 0x0, symName: __ZSt12__niter_baseIPKfET_S2_, symObjAddr: 0xD654, symBinAddr: 0x10001154C, symSize: 0x14 }
  - { offset: 0x14DFC, size: 0x8, addend: 0x0, symName: __ZNSt4pairIKiSt10shared_ptrI5ShapeEEC1IJOiEJEEESt21piecewise_construct_tSt5tupleIJDpT_EES8_IJDpT0_EE, symObjAddr: 0xD618, symBinAddr: 0x100011510, symSize: 0x3C }
  - { offset: 0x14E76, size: 0x8, addend: 0x0, symName: __ZNSt11_Tuple_implILm0EJOiEEC2EOS1_, symObjAddr: 0xD5F0, symBinAddr: 0x1000114E8, symSize: 0x28 }
  - { offset: 0x14EA1, size: 0x8, addend: 0x0, symName: __ZNSt10_Head_baseILm0EP8RendererLb0EE7_M_headERKS2_, symObjAddr: 0xD5DC, symBinAddr: 0x1000114D4, symSize: 0x14 }
  - { offset: 0x14ECA, size: 0x8, addend: 0x0, symName: __ZNSt10_Head_baseILm0EP6WindowLb0EE7_M_headERKS2_, symObjAddr: 0xD5C8, symBinAddr: 0x1000114C0, symSize: 0x14 }
  - { offset: 0x14EF3, size: 0x8, addend: 0x0, symName: __ZNSt10_Head_baseILm1ESt14default_deleteI8RendererELb1EE7_M_headERS3_, symObjAddr: 0xD5B4, symBinAddr: 0x1000114AC, symSize: 0x14 }
  - { offset: 0x14F3A, size: 0x8, addend: 0x0, symName: __ZNSt10_Head_baseILm1ESt14default_deleteI8RendererELb1EEC2Ev, symObjAddr: 0xD5A0, symBinAddr: 0x100011498, symSize: 0x14 }
  - { offset: 0x14F5C, size: 0x8, addend: 0x0, symName: __ZNSt10_Head_baseILm1ESt14default_deleteI6WindowELb1EE7_M_headERS3_, symObjAddr: 0xD58C, symBinAddr: 0x100011484, symSize: 0x14 }
  - { offset: 0x14FA3, size: 0x8, addend: 0x0, symName: __ZNSt10_Head_baseILm1ESt14default_deleteI6WindowELb1EEC2Ev, symObjAddr: 0xD578, symBinAddr: 0x100011470, symSize: 0x14 }
  - { offset: 0x1504C, size: 0x8, addend: 0x0, symName: __ZNSt5tupleIJRKiEEC1EOS2_, symObjAddr: 0xD550, symBinAddr: 0x100011448, symSize: 0x28 }
  - { offset: 0x15077, size: 0x8, addend: 0x0, symName: __ZSt10_ConstructI5ShapeJRSt6vectorIfSaIfEES4_EEvPT_DpOT0_, symObjAddr: 0xD474, symBinAddr: 0x10001136C, symSize: 0xDC }
  - { offset: 0x150D2, size: 0x8, addend: 0x0, symName: __ZSt13__copy_move_aILb0EPKfPfET1_T0_S4_S3_, symObjAddr: 0xD414, symBinAddr: 0x10001130C, symSize: 0x60 }
  - { offset: 0x1513A, size: 0x8, addend: 0x0, symName: __ZSt12__miter_baseIPKfET_S2_, symObjAddr: 0xD400, symBinAddr: 0x1000112F8, symSize: 0x14 }
  - { offset: 0x15175, size: 0x8, addend: 0x0, symName: __ZNK9__gnu_cxx16__aligned_membufISt4pairIKiSt10shared_ptrI5ShapeEEE7_M_addrEv, symObjAddr: 0xD3EC, symBinAddr: 0x1000112E4, symSize: 0x14 }
  - { offset: 0x15214, size: 0x8, addend: 0x0, symName: __ZNSt5tupleIJOiEEC1EOS1_, symObjAddr: 0xD3C4, symBinAddr: 0x1000112BC, symSize: 0x28 }
  - { offset: 0x15243, size: 0x8, addend: 0x0, symName: __ZNSt15__new_allocatorISt13_Rb_tree_nodeISt4pairIKiSt10shared_ptrI5ShapeEEEE8allocateEmPKv, symObjAddr: 0xD32C, symBinAddr: 0x100011224, symSize: 0x98 }
  - { offset: 0x152D3, size: 0x8, addend: 0x0, symName: __ZN9__gnu_cxx16__aligned_bufferI5ShapeE7_M_addrEv, symObjAddr: 0xD318, symBinAddr: 0x100011210, symSize: 0x14 }
  - { offset: 0x15300, size: 0x8, addend: 0x0, symName: __ZSt10_ConstructI5ShapeJifN3glm3vecILi3EfLNS1_9qualifierE0EEEEEvPT_DpOT0_, symObjAddr: 0xD258, symBinAddr: 0x100011150, symSize: 0xC0 }
  - { offset: 0x1536C, size: 0x8, addend: 0x0, symName: __ZNSt15__new_allocatorISt23_Sp_counted_ptr_inplaceI5ShapeSaIvELN9__gnu_cxx12_Lock_policyE2EEE10deallocateEPS5_m, symObjAddr: 0xD21C, symBinAddr: 0x100011114, symSize: 0x3C }
  - { offset: 0x153B2, size: 0x8, addend: 0x0, symName: __ZSt11__addressofISaISt23_Sp_counted_ptr_inplaceI5ShapeSaIvELN9__gnu_cxx12_Lock_policyE2EEEEPT_RS7_, symObjAddr: 0xD208, symBinAddr: 0x100011100, symSize: 0x14 }
  - { offset: 0x153E8, size: 0x8, addend: 0x0, symName: __ZNSt15__new_allocatorISt23_Sp_counted_ptr_inplaceI5ShapeSaIvELN9__gnu_cxx12_Lock_policyE2EEE8allocateEmPKv, symObjAddr: 0xD170, symBinAddr: 0x100011068, symSize: 0x98 }
  - { offset: 0x15478, size: 0x8, addend: 0x0, symName: __ZN9__gnu_cxx16__aligned_bufferI6ShaderE7_M_addrEv, symObjAddr: 0xD15C, symBinAddr: 0x100011054, symSize: 0x14 }
  - { offset: 0x1549E, size: 0x8, addend: 0x0, symName: __ZSt10_ConstructI6ShaderJEEvPT_DpOT0_, symObjAddr: 0xD130, symBinAddr: 0x100011028, symSize: 0x2C }
  - { offset: 0x15506, size: 0x8, addend: 0x0, symName: __ZNSt14_Sp_ebo_helperILi0ESaIvELb1EEC2ERKS0_, symObjAddr: 0xD118, symBinAddr: 0x100011010, symSize: 0x18 }
  - { offset: 0x15535, size: 0x8, addend: 0x0, symName: __ZNSt15__new_allocatorISt23_Sp_counted_ptr_inplaceI6ShaderSaIvELN9__gnu_cxx12_Lock_policyE2EEE10deallocateEPS5_m, symObjAddr: 0xD0DC, symBinAddr: 0x100010FD4, symSize: 0x3C }
  - { offset: 0x1557B, size: 0x8, addend: 0x0, symName: __ZSt11__addressofISaISt23_Sp_counted_ptr_inplaceI6ShaderSaIvELN9__gnu_cxx12_Lock_policyE2EEEEPT_RS7_, symObjAddr: 0xD0C8, symBinAddr: 0x100010FC0, symSize: 0x14 }
  - { offset: 0x155B1, size: 0x8, addend: 0x0, symName: __ZNSt15__new_allocatorISt23_Sp_counted_ptr_inplaceI6ShaderSaIvELN9__gnu_cxx12_Lock_policyE2EEE8allocateEmPKv, symObjAddr: 0xD038, symBinAddr: 0x100010F30, symSize: 0x90 }
  - { offset: 0x15639, size: 0x8, addend: 0x0, symName: __ZNSt11__copy_moveILb0ELb0ESt26random_access_iterator_tagE12__assign_oneIffEEvPT_PT0_, symObjAddr: 0xD010, symBinAddr: 0x100010F08, symSize: 0x28 }
  - { offset: 0x15686, size: 0x8, addend: 0x0, symName: __ZNSt11__copy_moveILb0ELb0ESt26random_access_iterator_tagE12__assign_oneIfKfEEvPT_PT0_, symObjAddr: 0xCFE8, symBinAddr: 0x100010EE0, symSize: 0x28 }
  - { offset: 0x156D3, size: 0x8, addend: 0x0, symName: __ZSt13__copy_move_aILb0EN9__gnu_cxx17__normal_iteratorIPKfSt6vectorIfSaIfEEEEPfET1_T0_SA_S9_, symObjAddr: 0xCF88, symBinAddr: 0x100010E80, symSize: 0x60 }
  - { offset: 0x1573B, size: 0x8, addend: 0x0, symName: __ZNSt11_Tuple_implILm0EJP8RendererSt14default_deleteIS0_EEE7_M_headERKS4_, symObjAddr: 0xCF6C, symBinAddr: 0x100010E64, symSize: 0x1C }
  - { offset: 0x15765, size: 0x8, addend: 0x0, symName: __ZNSt11_Tuple_implILm0EJP6WindowSt14default_deleteIS0_EEE7_M_headERKS4_, symObjAddr: 0xCF50, symBinAddr: 0x100010E48, symSize: 0x1C }
  - { offset: 0x1578F, size: 0x8, addend: 0x0, symName: __ZNSt11_Tuple_implILm1EJSt14default_deleteI8RendererEEE7_M_headERS3_, symObjAddr: 0xCF34, symBinAddr: 0x100010E2C, symSize: 0x1C }
  - { offset: 0x157B9, size: 0x8, addend: 0x0, symName: __ZNSt10_Head_baseILm0EP8RendererLb0EE7_M_headERS2_, symObjAddr: 0xCF20, symBinAddr: 0x100010E18, symSize: 0x14 }
  - { offset: 0x15800, size: 0x8, addend: 0x0, symName: __ZNSt10_Head_baseILm0EP8RendererLb0EEC2Ev, symObjAddr: 0xCF04, symBinAddr: 0x100010DFC, symSize: 0x1C }
  - { offset: 0x15840, size: 0x8, addend: 0x0, symName: __ZNSt11_Tuple_implILm1EJSt14default_deleteI8RendererEEEC2Ev, symObjAddr: 0xCEE4, symBinAddr: 0x100010DDC, symSize: 0x20 }
  - { offset: 0x15862, size: 0x8, addend: 0x0, symName: __ZNSt11_Tuple_implILm1EJSt14default_deleteI6WindowEEE7_M_headERS3_, symObjAddr: 0xCEC8, symBinAddr: 0x100010DC0, symSize: 0x1C }
  - { offset: 0x1588C, size: 0x8, addend: 0x0, symName: __ZNSt10_Head_baseILm0EP6WindowLb0EE7_M_headERS2_, symObjAddr: 0xCEB4, symBinAddr: 0x100010DAC, symSize: 0x14 }
  - { offset: 0x158D3, size: 0x8, addend: 0x0, symName: __ZNSt10_Head_baseILm0EP6WindowLb0EEC2Ev, symObjAddr: 0xCE98, symBinAddr: 0x100010D90, symSize: 0x1C }
  - { offset: 0x15913, size: 0x8, addend: 0x0, symName: __ZNSt11_Tuple_implILm1EJSt14default_deleteI6WindowEEEC2Ev, symObjAddr: 0xCE78, symBinAddr: 0x100010D70, symSize: 0x20 }
  - { offset: 0x1598D, size: 0x8, addend: 0x0, symName: __ZNSt14_Function_base13_Base_managerIZN8Renderer11setupShapesEvEUlvE11_E9_M_createIRKS2_EEvRSt9_Any_dataOT_St17integral_constantIbLb0EE, symObjAddr: 0xCE24, symBinAddr: 0x100010D1C, symSize: 0x54 }
  - { offset: 0x159DE, size: 0x8, addend: 0x0, symName: __ZN8Renderer11setupShapesEv, symObjAddr: 0x1C2C, symBinAddr: 0x100005B24, symSize: 0xE5C }
  - { offset: 0x15A3F, size: 0x8, addend: 0x0, symName: __ZZN8Renderer11setupShapesEvENKUlvE_clEv, symObjAddr: 0x1500, symBinAddr: 0x1000053F8, symSize: 0x4C }
  - { offset: 0x15AC9, size: 0x8, addend: 0x0, symName: __ZZN8Renderer11setupShapesEvENUlvE_D1Ev, symObjAddr: 0x15BC, symBinAddr: 0x1000054B4, symSize: 0x20 }
  - { offset: 0x15AEF, size: 0x8, addend: 0x0, symName: __ZZN8Renderer11setupShapesEvENUlvE_C1EOS0_, symObjAddr: 0x8E50, symBinAddr: 0x10000CD48, symSize: 0x28 }
  - { offset: 0x15B1E, size: 0x8, addend: 0x0, symName: __ZZN8Renderer11setupShapesEvENUlvE_C1ERKS0_, symObjAddr: 0xC6C4, symBinAddr: 0x1000105BC, symSize: 0x28 }
  - { offset: 0x15B92, size: 0x8, addend: 0x0, symName: __ZZN8Renderer11setupShapesEvENKUlvE0_clEv, symObjAddr: 0x1644, symBinAddr: 0x10000553C, symSize: 0x3C }
  - { offset: 0x15C0F, size: 0x8, addend: 0x0, symName: __ZZN8Renderer11setupShapesEvENUlvE0_D1Ev, symObjAddr: 0x1680, symBinAddr: 0x100005578, symSize: 0x20 }
  - { offset: 0x15C35, size: 0x8, addend: 0x0, symName: __ZZN8Renderer11setupShapesEvENUlvE0_C1EOS0_, symObjAddr: 0x9484, symBinAddr: 0x10000D37C, symSize: 0x28 }
  - { offset: 0x15C64, size: 0x8, addend: 0x0, symName: __ZZN8Renderer11setupShapesEvENUlvE0_C1ERKS0_, symObjAddr: 0xC784, symBinAddr: 0x10001067C, symSize: 0x28 }
  - { offset: 0x15CD8, size: 0x8, addend: 0x0, symName: __ZZN8Renderer11setupShapesEvENKUlvE1_clEv, symObjAddr: 0x16A0, symBinAddr: 0x100005598, symSize: 0x54 }
  - { offset: 0x15D55, size: 0x8, addend: 0x0, symName: __ZZN8Renderer11setupShapesEvENUlvE1_D1Ev, symObjAddr: 0x16F4, symBinAddr: 0x1000055EC, symSize: 0x20 }
  - { offset: 0x15D7B, size: 0x8, addend: 0x0, symName: __ZZN8Renderer11setupShapesEvENUlvE1_C1EOS0_, symObjAddr: 0x9630, symBinAddr: 0x10000D528, symSize: 0x28 }
  - { offset: 0x15DAA, size: 0x8, addend: 0x0, symName: __ZZN8Renderer11setupShapesEvENUlvE1_C1ERKS0_, symObjAddr: 0xC814, symBinAddr: 0x10001070C, symSize: 0x28 }
  - { offset: 0x15E40, size: 0x8, addend: 0x0, symName: __ZZN8Renderer11setupShapesEvENKUlvE2_clEv, symObjAddr: 0x1714, symBinAddr: 0x10000560C, symSize: 0x54 }
  - { offset: 0x15EBD, size: 0x8, addend: 0x0, symName: __ZZN8Renderer11setupShapesEvENUlvE2_D1Ev, symObjAddr: 0x1768, symBinAddr: 0x100005660, symSize: 0x20 }
  - { offset: 0x15EE3, size: 0x8, addend: 0x0, symName: __ZZN8Renderer11setupShapesEvENUlvE2_C1EOS0_, symObjAddr: 0x99A8, symBinAddr: 0x10000D8A0, symSize: 0x28 }
  - { offset: 0x15F12, size: 0x8, addend: 0x0, symName: __ZZN8Renderer11setupShapesEvENUlvE2_C1ERKS0_, symObjAddr: 0xC8EC, symBinAddr: 0x1000107E4, symSize: 0x28 }
  - { offset: 0x15FA8, size: 0x8, addend: 0x0, symName: __ZZN8Renderer11setupShapesEvENKUlvE3_clEv, symObjAddr: 0x1788, symBinAddr: 0x100005680, symSize: 0x3C }
  - { offset: 0x16025, size: 0x8, addend: 0x0, symName: __ZZN8Renderer11setupShapesEvENUlvE3_D1Ev, symObjAddr: 0x17C4, symBinAddr: 0x1000056BC, symSize: 0x20 }
  - { offset: 0x1604B, size: 0x8, addend: 0x0, symName: __ZZN8Renderer11setupShapesEvENUlvE3_C1EOS0_, symObjAddr: 0x9B54, symBinAddr: 0x10000DA4C, symSize: 0x28 }
  - { offset: 0x1607A, size: 0x8, addend: 0x0, symName: __ZZN8Renderer11setupShapesEvENUlvE3_C1ERKS0_, symObjAddr: 0xC97C, symBinAddr: 0x100010874, symSize: 0x28 }
  - { offset: 0x16110, size: 0x8, addend: 0x0, symName: __ZZN8Renderer11setupShapesEvENKUlvE4_clEv, symObjAddr: 0x17E4, symBinAddr: 0x1000056DC, symSize: 0x54 }
  - { offset: 0x1618D, size: 0x8, addend: 0x0, symName: __ZZN8Renderer11setupShapesEvENUlvE4_D1Ev, symObjAddr: 0x1838, symBinAddr: 0x100005730, symSize: 0x20 }
  - { offset: 0x161B3, size: 0x8, addend: 0x0, symName: __ZZN8Renderer11setupShapesEvENUlvE4_C1EOS0_, symObjAddr: 0x9D00, symBinAddr: 0x10000DBF8, symSize: 0x28 }
  - { offset: 0x161E2, size: 0x8, addend: 0x0, symName: __ZZN8Renderer11setupShapesEvENUlvE4_C1ERKS0_, symObjAddr: 0xCA0C, symBinAddr: 0x100010904, symSize: 0x28 }
  - { offset: 0x16278, size: 0x8, addend: 0x0, symName: __ZZN8Renderer11setupShapesEvENKUlvE5_clEv, symObjAddr: 0x1858, symBinAddr: 0x100005750, symSize: 0x54 }
  - { offset: 0x162F5, size: 0x8, addend: 0x0, symName: __ZZN8Renderer11setupShapesEvENUlvE5_D1Ev, symObjAddr: 0x18AC, symBinAddr: 0x1000057A4, symSize: 0x20 }
  - { offset: 0x1631B, size: 0x8, addend: 0x0, symName: __ZZN8Renderer11setupShapesEvENUlvE5_C1EOS0_, symObjAddr: 0x9EAC, symBinAddr: 0x10000DDA4, symSize: 0x28 }
  - { offset: 0x1634A, size: 0x8, addend: 0x0, symName: __ZZN8Renderer11setupShapesEvENUlvE5_C1ERKS0_, symObjAddr: 0xCA9C, symBinAddr: 0x100010994, symSize: 0x28 }
  - { offset: 0x163E0, size: 0x8, addend: 0x0, symName: __ZZN8Renderer11setupShapesEvENKUlvE6_clEv, symObjAddr: 0x18CC, symBinAddr: 0x1000057C4, symSize: 0x54 }
  - { offset: 0x1645D, size: 0x8, addend: 0x0, symName: __ZZN8Renderer11setupShapesEvENUlvE6_D1Ev, symObjAddr: 0x1920, symBinAddr: 0x100005818, symSize: 0x20 }
  - { offset: 0x16483, size: 0x8, addend: 0x0, symName: __ZZN8Renderer11setupShapesEvENUlvE6_C1EOS0_, symObjAddr: 0xA058, symBinAddr: 0x10000DF50, symSize: 0x28 }
  - { offset: 0x164B2, size: 0x8, addend: 0x0, symName: __ZZN8Renderer11setupShapesEvENUlvE6_C1ERKS0_, symObjAddr: 0xCB2C, symBinAddr: 0x100010A24, symSize: 0x28 }
  - { offset: 0x16548, size: 0x8, addend: 0x0, symName: __ZZN8Renderer11setupShapesEvENKUlvE7_clEv, symObjAddr: 0x1940, symBinAddr: 0x100005838, symSize: 0x34 }
  - { offset: 0x165C5, size: 0x8, addend: 0x0, symName: __ZZN8Renderer11setupShapesEvENUlvE7_D1Ev, symObjAddr: 0x1974, symBinAddr: 0x10000586C, symSize: 0x20 }
  - { offset: 0x165EB, size: 0x8, addend: 0x0, symName: __ZZN8Renderer11setupShapesEvENUlvE7_C1EOS0_, symObjAddr: 0xA204, symBinAddr: 0x10000E0FC, symSize: 0x28 }
  - { offset: 0x1661A, size: 0x8, addend: 0x0, symName: __ZZN8Renderer11setupShapesEvENUlvE7_C1ERKS0_, symObjAddr: 0xCBBC, symBinAddr: 0x100010AB4, symSize: 0x28 }
  - { offset: 0x166B4, size: 0x8, addend: 0x0, symName: __ZZN8Renderer11setupShapesEvENKUlvE8_clEv, symObjAddr: 0x1994, symBinAddr: 0x10000588C, symSize: 0x54 }
  - { offset: 0x16731, size: 0x8, addend: 0x0, symName: __ZZN8Renderer11setupShapesEvENUlvE8_D1Ev, symObjAddr: 0x19E8, symBinAddr: 0x1000058E0, symSize: 0x20 }
  - { offset: 0x16757, size: 0x8, addend: 0x0, symName: __ZZN8Renderer11setupShapesEvENUlvE8_C1EOS0_, symObjAddr: 0xA3B0, symBinAddr: 0x10000E2A8, symSize: 0x28 }
  - { offset: 0x16786, size: 0x8, addend: 0x0, symName: __ZZN8Renderer11setupShapesEvENUlvE8_C1ERKS0_, symObjAddr: 0xCC4C, symBinAddr: 0x100010B44, symSize: 0x28 }
  - { offset: 0x167FD, size: 0x8, addend: 0x0, symName: __ZZN8Renderer11setupShapesEvENKUlvE9_clEv, symObjAddr: 0x1A08, symBinAddr: 0x100005900, symSize: 0xA4 }
  - { offset: 0x1687A, size: 0x8, addend: 0x0, symName: __ZZN8Renderer11setupShapesEvENUlvE9_D1Ev, symObjAddr: 0x1AAC, symBinAddr: 0x1000059A4, symSize: 0x20 }
  - { offset: 0x168A0, size: 0x8, addend: 0x0, symName: __ZZN8Renderer11setupShapesEvENUlvE9_C1EOS0_, symObjAddr: 0xA55C, symBinAddr: 0x10000E454, symSize: 0x28 }
  - { offset: 0x168CF, size: 0x8, addend: 0x0, symName: __ZZN8Renderer11setupShapesEvENUlvE9_C1ERKS0_, symObjAddr: 0xCCDC, symBinAddr: 0x100010BD4, symSize: 0x28 }
  - { offset: 0x16946, size: 0x8, addend: 0x0, symName: __ZZN8Renderer11setupShapesEvENKUlvE10_clEv, symObjAddr: 0x1ACC, symBinAddr: 0x1000059C4, symSize: 0x90 }
  - { offset: 0x169C3, size: 0x8, addend: 0x0, symName: __ZZN8Renderer11setupShapesEvENUlvE10_D1Ev, symObjAddr: 0x1B5C, symBinAddr: 0x100005A54, symSize: 0x20 }
  - { offset: 0x169E9, size: 0x8, addend: 0x0, symName: __ZZN8Renderer11setupShapesEvENUlvE10_C1EOS0_, symObjAddr: 0xA708, symBinAddr: 0x10000E600, symSize: 0x28 }
  - { offset: 0x16A18, size: 0x8, addend: 0x0, symName: __ZZN8Renderer11setupShapesEvENUlvE10_C1ERKS0_, symObjAddr: 0xCD6C, symBinAddr: 0x100010C64, symSize: 0x28 }
  - { offset: 0x16A8F, size: 0x8, addend: 0x0, symName: __ZZN8Renderer11setupShapesEvENKUlvE11_clEv, symObjAddr: 0x1B7C, symBinAddr: 0x100005A74, symSize: 0x90 }
  - { offset: 0x16B0C, size: 0x8, addend: 0x0, symName: __ZZN8Renderer11setupShapesEvENUlvE11_D1Ev, symObjAddr: 0x1C0C, symBinAddr: 0x100005B04, symSize: 0x20 }
  - { offset: 0x16B32, size: 0x8, addend: 0x0, symName: __ZZN8Renderer11setupShapesEvENUlvE11_C1EOS0_, symObjAddr: 0xA8B4, symBinAddr: 0x10000E7AC, symSize: 0x28 }
  - { offset: 0x16B61, size: 0x8, addend: 0x0, symName: __ZZN8Renderer11setupShapesEvENUlvE11_C1ERKS0_, symObjAddr: 0xCDFC, symBinAddr: 0x100010CF4, symSize: 0x28 }
  - { offset: 0x172CB, size: 0x8, addend: 0x0, symName: __ZSt7forwardIRKZN8Renderer11setupShapesEvEUlvE11_EOT_RNSt16remove_referenceIS4_E4typeE, symObjAddr: 0xCDE8, symBinAddr: 0x100010CE0, symSize: 0x14 }
  - { offset: 0x172FD, size: 0x8, addend: 0x0, symName: __ZNSt14_Function_base13_Base_managerIZN8Renderer11setupShapesEvEUlvE10_E9_M_createIRKS2_EEvRSt9_Any_dataOT_St17integral_constantIbLb0EE, symObjAddr: 0xCD94, symBinAddr: 0x100010C8C, symSize: 0x54 }
  - { offset: 0x1734F, size: 0x8, addend: 0x0, symName: __ZSt7forwardIRKZN8Renderer11setupShapesEvEUlvE10_EOT_RNSt16remove_referenceIS4_E4typeE, symObjAddr: 0xCD58, symBinAddr: 0x100010C50, symSize: 0x14 }
  - { offset: 0x17381, size: 0x8, addend: 0x0, symName: __ZNSt14_Function_base13_Base_managerIZN8Renderer11setupShapesEvEUlvE9_E9_M_createIRKS2_EEvRSt9_Any_dataOT_St17integral_constantIbLb0EE, symObjAddr: 0xCD04, symBinAddr: 0x100010BFC, symSize: 0x54 }
  - { offset: 0x173D3, size: 0x8, addend: 0x0, symName: __ZSt7forwardIRKZN8Renderer11setupShapesEvEUlvE9_EOT_RNSt16remove_referenceIS4_E4typeE, symObjAddr: 0xCCC8, symBinAddr: 0x100010BC0, symSize: 0x14 }
  - { offset: 0x17405, size: 0x8, addend: 0x0, symName: __ZNSt14_Function_base13_Base_managerIZN8Renderer11setupShapesEvEUlvE8_E9_M_createIRKS2_EEvRSt9_Any_dataOT_St17integral_constantIbLb0EE, symObjAddr: 0xCC74, symBinAddr: 0x100010B6C, symSize: 0x54 }
  - { offset: 0x17457, size: 0x8, addend: 0x0, symName: __ZSt7forwardIRKZN8Renderer11setupShapesEvEUlvE8_EOT_RNSt16remove_referenceIS4_E4typeE, symObjAddr: 0xCC38, symBinAddr: 0x100010B30, symSize: 0x14 }
  - { offset: 0x17489, size: 0x8, addend: 0x0, symName: __ZNSt14_Function_base13_Base_managerIZN8Renderer11setupShapesEvEUlvE7_E9_M_createIRKS2_EEvRSt9_Any_dataOT_St17integral_constantIbLb0EE, symObjAddr: 0xCBE4, symBinAddr: 0x100010ADC, symSize: 0x54 }
  - { offset: 0x174DB, size: 0x8, addend: 0x0, symName: __ZSt7forwardIRKZN8Renderer11setupShapesEvEUlvE7_EOT_RNSt16remove_referenceIS4_E4typeE, symObjAddr: 0xCBA8, symBinAddr: 0x100010AA0, symSize: 0x14 }
  - { offset: 0x1750D, size: 0x8, addend: 0x0, symName: __ZNSt14_Function_base13_Base_managerIZN8Renderer11setupShapesEvEUlvE6_E9_M_createIRKS2_EEvRSt9_Any_dataOT_St17integral_constantIbLb0EE, symObjAddr: 0xCB54, symBinAddr: 0x100010A4C, symSize: 0x54 }
  - { offset: 0x1755F, size: 0x8, addend: 0x0, symName: __ZSt7forwardIRKZN8Renderer11setupShapesEvEUlvE6_EOT_RNSt16remove_referenceIS4_E4typeE, symObjAddr: 0xCB18, symBinAddr: 0x100010A10, symSize: 0x14 }
  - { offset: 0x17591, size: 0x8, addend: 0x0, symName: __ZNSt14_Function_base13_Base_managerIZN8Renderer11setupShapesEvEUlvE5_E9_M_createIRKS2_EEvRSt9_Any_dataOT_St17integral_constantIbLb0EE, symObjAddr: 0xCAC4, symBinAddr: 0x1000109BC, symSize: 0x54 }
  - { offset: 0x175E3, size: 0x8, addend: 0x0, symName: __ZSt7forwardIRKZN8Renderer11setupShapesEvEUlvE5_EOT_RNSt16remove_referenceIS4_E4typeE, symObjAddr: 0xCA88, symBinAddr: 0x100010980, symSize: 0x14 }
  - { offset: 0x17615, size: 0x8, addend: 0x0, symName: __ZNSt14_Function_base13_Base_managerIZN8Renderer11setupShapesEvEUlvE4_E9_M_createIRKS2_EEvRSt9_Any_dataOT_St17integral_constantIbLb0EE, symObjAddr: 0xCA34, symBinAddr: 0x10001092C, symSize: 0x54 }
  - { offset: 0x17667, size: 0x8, addend: 0x0, symName: __ZSt7forwardIRKZN8Renderer11setupShapesEvEUlvE4_EOT_RNSt16remove_referenceIS4_E4typeE, symObjAddr: 0xC9F8, symBinAddr: 0x1000108F0, symSize: 0x14 }
  - { offset: 0x17699, size: 0x8, addend: 0x0, symName: __ZNSt14_Function_base13_Base_managerIZN8Renderer11setupShapesEvEUlvE3_E9_M_createIRKS2_EEvRSt9_Any_dataOT_St17integral_constantIbLb0EE, symObjAddr: 0xC9A4, symBinAddr: 0x10001089C, symSize: 0x54 }
  - { offset: 0x176EB, size: 0x8, addend: 0x0, symName: __ZSt7forwardIRKZN8Renderer11setupShapesEvEUlvE3_EOT_RNSt16remove_referenceIS4_E4typeE, symObjAddr: 0xC968, symBinAddr: 0x100010860, symSize: 0x14 }
  - { offset: 0x1771D, size: 0x8, addend: 0x0, symName: __ZNSt14_Function_base13_Base_managerIZN8Renderer11setupShapesEvEUlvE2_E9_M_createIRKS2_EEvRSt9_Any_dataOT_St17integral_constantIbLb0EE, symObjAddr: 0xC914, symBinAddr: 0x10001080C, symSize: 0x54 }
  - { offset: 0x1776F, size: 0x8, addend: 0x0, symName: __ZSt7forwardIRKZN8Renderer11setupShapesEvEUlvE2_EOT_RNSt16remove_referenceIS4_E4typeE, symObjAddr: 0xC8D8, symBinAddr: 0x1000107D0, symSize: 0x14 }
  - { offset: 0x177E6, size: 0x8, addend: 0x0, symName: __ZSt4copyIPKfPfET0_T_S4_S3_, symObjAddr: 0xC890, symBinAddr: 0x100010788, symSize: 0x48 }
  - { offset: 0x1785A, size: 0x8, addend: 0x0, symName: __ZNSt14_Function_base13_Base_managerIZN8Renderer11setupShapesEvEUlvE1_E9_M_createIRKS2_EEvRSt9_Any_dataOT_St17integral_constantIbLb0EE, symObjAddr: 0xC83C, symBinAddr: 0x100010734, symSize: 0x54 }
  - { offset: 0x178AC, size: 0x8, addend: 0x0, symName: __ZSt7forwardIRKZN8Renderer11setupShapesEvEUlvE1_EOT_RNSt16remove_referenceIS4_E4typeE, symObjAddr: 0xC800, symBinAddr: 0x1000106F8, symSize: 0x14 }
  - { offset: 0x178DE, size: 0x8, addend: 0x0, symName: __ZNSt14_Function_base13_Base_managerIZN8Renderer11setupShapesEvEUlvE0_E9_M_createIRKS2_EEvRSt9_Any_dataOT_St17integral_constantIbLb0EE, symObjAddr: 0xC7AC, symBinAddr: 0x1000106A4, symSize: 0x54 }
  - { offset: 0x17930, size: 0x8, addend: 0x0, symName: __ZSt7forwardIRKZN8Renderer11setupShapesEvEUlvE0_EOT_RNSt16remove_referenceIS4_E4typeE, symObjAddr: 0xC770, symBinAddr: 0x100010668, symSize: 0x14 }
  - { offset: 0x17966, size: 0x8, addend: 0x0, symName: __ZNK9__gnu_cxx16__aligned_membufISt4pairIKiSt10shared_ptrI5ShapeEEE6_M_ptrEv, symObjAddr: 0xC754, symBinAddr: 0x10001064C, symSize: 0x1C }
  - { offset: 0x1799A, size: 0x8, addend: 0x0, symName: __ZSt7forwardIRPSt13_Rb_tree_nodeISt4pairIKiSt10shared_ptrI5ShapeEEEEOT_RNSt16remove_referenceISA_E4typeE, symObjAddr: 0xC740, symBinAddr: 0x100010638, symSize: 0x14 }
  - { offset: 0x17A48, size: 0x8, addend: 0x0, symName: __ZNSt14_Function_base13_Base_managerIZN8Renderer11setupShapesEvEUlvE_E9_M_createIRKS2_EEvRSt9_Any_dataOT_St17integral_constantIbLb0EE, symObjAddr: 0xC6EC, symBinAddr: 0x1000105E4, symSize: 0x54 }
  - { offset: 0x17A9A, size: 0x8, addend: 0x0, symName: __ZSt7forwardIRKZN8Renderer11setupShapesEvEUlvE_EOT_RNSt16remove_referenceIS4_E4typeE, symObjAddr: 0xC6B0, symBinAddr: 0x1000105A8, symSize: 0x14 }
  - { offset: 0x17AF8, size: 0x8, addend: 0x0, symName: __ZNSt12__shared_ptrI5ShapeLN9__gnu_cxx12_Lock_policyE2EEC2EOS3_, symObjAddr: 0xC654, symBinAddr: 0x10001054C, symSize: 0x5C }
  - { offset: 0x17B2A, size: 0x8, addend: 0x0, symName: __ZSt4moveIRSt10shared_ptrI5ShapeEEONSt16remove_referenceIT_E4typeEOS5_, symObjAddr: 0xC640, symBinAddr: 0x100010538, symSize: 0x14 }
  - { offset: 0x17B60, size: 0x8, addend: 0x0, symName: __ZN9__gnu_cxx16__aligned_bufferI5ShapeE6_M_ptrEv, symObjAddr: 0xC624, symBinAddr: 0x10001051C, symSize: 0x1C }
  - { offset: 0x17C01, size: 0x8, addend: 0x0, symName: __ZNSt23_Sp_counted_ptr_inplaceI5ShapeSaIvELN9__gnu_cxx12_Lock_policyE2EE5_ImplC1ES1_, symObjAddr: 0xC5F8, symBinAddr: 0x1000104F0, symSize: 0x2C }
  - { offset: 0x17C2C, size: 0x8, addend: 0x0, symName: __ZSt12__to_addressISt23_Sp_counted_ptr_inplaceI5ShapeSaIvELN9__gnu_cxx12_Lock_policyE2EEEPT_S7_, symObjAddr: 0xC5E4, symBinAddr: 0x1000104DC, symSize: 0x14 }
  - { offset: 0x17CC8, size: 0x8, addend: 0x0, symName: __ZNSt15__allocated_ptrISaISt23_Sp_counted_ptr_inplaceI5ShapeSaIvELN9__gnu_cxx12_Lock_policyE2EEEEC1ERS6_PS5_, symObjAddr: 0xC5A4, symBinAddr: 0x10001049C, symSize: 0x40 }
  - { offset: 0x17D48, size: 0x8, addend: 0x0, symName: __ZNSt15__new_allocatorISt23_Sp_counted_ptr_inplaceI5ShapeSaIvELN9__gnu_cxx12_Lock_policyE2EEED2Ev, symObjAddr: 0xC590, symBinAddr: 0x100010488, symSize: 0x14 }
  - { offset: 0x17D84, size: 0x8, addend: 0x0, symName: __ZN9__gnu_cxx16__aligned_bufferI6ShaderE6_M_ptrEv, symObjAddr: 0xC574, symBinAddr: 0x10001046C, symSize: 0x1C }
  - { offset: 0x17E05, size: 0x8, addend: 0x0, symName: __ZNSt23_Sp_counted_ptr_inplaceI6ShaderSaIvELN9__gnu_cxx12_Lock_policyE2EE5_ImplC1ES1_, symObjAddr: 0xC548, symBinAddr: 0x100010440, symSize: 0x2C }
  - { offset: 0x17E4E, size: 0x8, addend: 0x0, symName: __ZNSt16_Sp_counted_baseILN9__gnu_cxx12_Lock_policyE2EEC2Ev, symObjAddr: 0xC508, symBinAddr: 0x100010400, symSize: 0x40 }
  - { offset: 0x17E70, size: 0x8, addend: 0x0, symName: __ZSt12__to_addressISt23_Sp_counted_ptr_inplaceI6ShaderSaIvELN9__gnu_cxx12_Lock_policyE2EEEPT_S7_, symObjAddr: 0xC4F4, symBinAddr: 0x1000103EC, symSize: 0x14 }
  - { offset: 0x17F0C, size: 0x8, addend: 0x0, symName: __ZNSt15__allocated_ptrISaISt23_Sp_counted_ptr_inplaceI6ShaderSaIvELN9__gnu_cxx12_Lock_policyE2EEEEC1ERS6_PS5_, symObjAddr: 0xC4B4, symBinAddr: 0x1000103AC, symSize: 0x40 }
  - { offset: 0x17F8C, size: 0x8, addend: 0x0, symName: __ZNSt15__new_allocatorISt23_Sp_counted_ptr_inplaceI6ShaderSaIvELN9__gnu_cxx12_Lock_policyE2EEED2Ev, symObjAddr: 0xC4A0, symBinAddr: 0x100010398, symSize: 0x14 }
  - { offset: 0x17FC8, size: 0x8, addend: 0x0, symName: __ZNSt15__new_allocatorISt13_Rb_tree_nodeISt4pairIKiSt10shared_ptrI5ShapeEEEE10deallocateEPS7_m, symObjAddr: 0xC464, symBinAddr: 0x10001035C, symSize: 0x3C }
  - { offset: 0x18066, size: 0x8, addend: 0x0, symName: __ZNSt4pairIKiSt10shared_ptrI5ShapeEED1Ev, symObjAddr: 0xC440, symBinAddr: 0x100010338, symSize: 0x24 }
  - { offset: 0x18088, size: 0x8, addend: 0x0, symName: __ZNSt11__copy_moveILb0ELb1ESt26random_access_iterator_tagE8__copy_mIffEEPT0_PT_S6_S4_, symObjAddr: 0xC3B0, symBinAddr: 0x1000102A8, symSize: 0x90 }
  - { offset: 0x180F7, size: 0x8, addend: 0x0, symName: __ZNSt11__copy_moveILb0ELb1ESt26random_access_iterator_tagE8__copy_mIKffEEPT0_PT_S7_S5_, symObjAddr: 0xC320, symBinAddr: 0x100010218, symSize: 0x90 }
  - { offset: 0x18166, size: 0x8, addend: 0x0, symName: __ZSt4copyIN9__gnu_cxx17__normal_iteratorIPKfSt6vectorIfSaIfEEEEPfET0_T_SA_S9_, symObjAddr: 0xC2D8, symBinAddr: 0x1000101D0, symSize: 0x48 }
  - { offset: 0x181C4, size: 0x8, addend: 0x0, symName: __ZSt12__get_helperILm0EP8RendererJSt14default_deleteIS0_EEERKT0_RKSt11_Tuple_implIXT_EJS4_DpT1_EE, symObjAddr: 0xC2BC, symBinAddr: 0x1000101B4, symSize: 0x1C }
  - { offset: 0x1820C, size: 0x8, addend: 0x0, symName: __ZSt12__get_helperILm0EP6WindowJSt14default_deleteIS0_EEERKT0_RKSt11_Tuple_implIXT_EJS4_DpT1_EE, symObjAddr: 0xC2A0, symBinAddr: 0x100010198, symSize: 0x1C }
  - { offset: 0x18254, size: 0x8, addend: 0x0, symName: __ZSt12__get_helperILm1ESt14default_deleteI8RendererEJEERT0_RSt11_Tuple_implIXT_EJS3_DpT1_EE, symObjAddr: 0xC284, symBinAddr: 0x10001017C, symSize: 0x1C }
  - { offset: 0x18296, size: 0x8, addend: 0x0, symName: __ZNSt11_Tuple_implILm0EJP8RendererSt14default_deleteIS0_EEE7_M_headERS4_, symObjAddr: 0xC268, symBinAddr: 0x100010160, symSize: 0x1C }
  - { offset: 0x182DE, size: 0x8, addend: 0x0, symName: __ZNSt11_Tuple_implILm0EJP8RendererSt14default_deleteIS0_EEEC2Ev, symObjAddr: 0xC240, symBinAddr: 0x100010138, symSize: 0x28 }
  - { offset: 0x18300, size: 0x8, addend: 0x0, symName: __ZSt12__get_helperILm1ESt14default_deleteI6WindowEJEERT0_RSt11_Tuple_implIXT_EJS3_DpT1_EE, symObjAddr: 0xC224, symBinAddr: 0x10001011C, symSize: 0x1C }
  - { offset: 0x18342, size: 0x8, addend: 0x0, symName: __ZNSt11_Tuple_implILm0EJP6WindowSt14default_deleteIS0_EEE7_M_headERS4_, symObjAddr: 0xC208, symBinAddr: 0x100010100, symSize: 0x1C }
  - { offset: 0x1838A, size: 0x8, addend: 0x0, symName: __ZNSt11_Tuple_implILm0EJP6WindowSt14default_deleteIS0_EEEC2Ev, symObjAddr: 0xC1E0, symBinAddr: 0x1000100D8, symSize: 0x28 }
  - { offset: 0x183B0, size: 0x8, addend: 0x0, symName: __ZNSt8_Rb_treeIiSt4pairIKiSt10shared_ptrI5ShapeEESt10_Select1stIS5_ESt4lessIiESaIS5_EE17_M_construct_nodeIJRKSt21piecewise_construct_tSt5tupleIJRS1_EESG_IJEEEEEvPSt13_Rb_tree_nodeIS5_EDpOT_, symObjAddr: 0xC064, symBinAddr: 0x10000FF5C, symSize: 0x17C }
  - { offset: 0x184AD, size: 0x8, addend: 0x0, symName: __ZNSt14_Function_base13_Base_managerIZN8Renderer11setupShapesEvEUlvE11_E10_M_destroyERSt9_Any_dataSt17integral_constantIbLb0EE, symObjAddr: 0xC018, symBinAddr: 0x10000FF10, symSize: 0x4C }
  - { offset: 0x184DF, size: 0x8, addend: 0x0, symName: __ZNSt14_Function_base13_Base_managerIZN8Renderer11setupShapesEvEUlvE11_E15_M_init_functorIRKS2_EEvRSt9_Any_dataOT_, symObjAddr: 0xBFDC, symBinAddr: 0x10000FED4, symSize: 0x3C }
  - { offset: 0x18521, size: 0x8, addend: 0x0, symName: __ZSt13__invoke_implIvRZN8Renderer11setupShapesEvEUlvE11_JEET_St14__invoke_otherOT0_DpOT1_, symObjAddr: 0xBFB4, symBinAddr: 0x10000FEAC, symSize: 0x28 }
  - { offset: 0x18572, size: 0x8, addend: 0x0, symName: __ZSt7forwardIRZN8Renderer11setupShapesEvEUlvE11_EOT_RNSt16remove_referenceIS3_E4typeE, symObjAddr: 0xBFA0, symBinAddr: 0x10000FE98, symSize: 0x14 }
  - { offset: 0x185AF, size: 0x8, addend: 0x0, symName: __ZNKSt9_Any_data9_M_accessIPZN8Renderer11setupShapesEvEUlvE11_EERKT_v, symObjAddr: 0xBF84, symBinAddr: 0x10000FE7C, symSize: 0x1C }
  - { offset: 0x185DE, size: 0x8, addend: 0x0, symName: __ZNSt14_Function_base13_Base_managerIZN8Renderer11setupShapesEvEUlvE10_E10_M_destroyERSt9_Any_dataSt17integral_constantIbLb0EE, symObjAddr: 0xBF38, symBinAddr: 0x10000FE30, symSize: 0x4C }
  - { offset: 0x18610, size: 0x8, addend: 0x0, symName: __ZNSt14_Function_base13_Base_managerIZN8Renderer11setupShapesEvEUlvE10_E15_M_init_functorIRKS2_EEvRSt9_Any_dataOT_, symObjAddr: 0xBEFC, symBinAddr: 0x10000FDF4, symSize: 0x3C }
  - { offset: 0x18652, size: 0x8, addend: 0x0, symName: __ZSt13__invoke_implIvRZN8Renderer11setupShapesEvEUlvE10_JEET_St14__invoke_otherOT0_DpOT1_, symObjAddr: 0xBED4, symBinAddr: 0x10000FDCC, symSize: 0x28 }
  - { offset: 0x186A3, size: 0x8, addend: 0x0, symName: __ZSt7forwardIRZN8Renderer11setupShapesEvEUlvE10_EOT_RNSt16remove_referenceIS3_E4typeE, symObjAddr: 0xBEC0, symBinAddr: 0x10000FDB8, symSize: 0x14 }
  - { offset: 0x186E0, size: 0x8, addend: 0x0, symName: __ZNKSt9_Any_data9_M_accessIPZN8Renderer11setupShapesEvEUlvE10_EERKT_v, symObjAddr: 0xBEA4, symBinAddr: 0x10000FD9C, symSize: 0x1C }
  - { offset: 0x1870F, size: 0x8, addend: 0x0, symName: __ZNSt14_Function_base13_Base_managerIZN8Renderer11setupShapesEvEUlvE9_E10_M_destroyERSt9_Any_dataSt17integral_constantIbLb0EE, symObjAddr: 0xBE58, symBinAddr: 0x10000FD50, symSize: 0x4C }
  - { offset: 0x18741, size: 0x8, addend: 0x0, symName: __ZNSt14_Function_base13_Base_managerIZN8Renderer11setupShapesEvEUlvE9_E15_M_init_functorIRKS2_EEvRSt9_Any_dataOT_, symObjAddr: 0xBE1C, symBinAddr: 0x10000FD14, symSize: 0x3C }
  - { offset: 0x18783, size: 0x8, addend: 0x0, symName: __ZSt13__invoke_implIvRZN8Renderer11setupShapesEvEUlvE9_JEET_St14__invoke_otherOT0_DpOT1_, symObjAddr: 0xBDF4, symBinAddr: 0x10000FCEC, symSize: 0x28 }
  - { offset: 0x187D4, size: 0x8, addend: 0x0, symName: __ZSt7forwardIRZN8Renderer11setupShapesEvEUlvE9_EOT_RNSt16remove_referenceIS3_E4typeE, symObjAddr: 0xBDE0, symBinAddr: 0x10000FCD8, symSize: 0x14 }
  - { offset: 0x18811, size: 0x8, addend: 0x0, symName: __ZNKSt9_Any_data9_M_accessIPZN8Renderer11setupShapesEvEUlvE9_EERKT_v, symObjAddr: 0xBDC4, symBinAddr: 0x10000FCBC, symSize: 0x1C }
  - { offset: 0x18840, size: 0x8, addend: 0x0, symName: __ZNSt14_Function_base13_Base_managerIZN8Renderer11setupShapesEvEUlvE8_E10_M_destroyERSt9_Any_dataSt17integral_constantIbLb0EE, symObjAddr: 0xBD78, symBinAddr: 0x10000FC70, symSize: 0x4C }
  - { offset: 0x18872, size: 0x8, addend: 0x0, symName: __ZNSt14_Function_base13_Base_managerIZN8Renderer11setupShapesEvEUlvE8_E15_M_init_functorIRKS2_EEvRSt9_Any_dataOT_, symObjAddr: 0xBD3C, symBinAddr: 0x10000FC34, symSize: 0x3C }
  - { offset: 0x188B4, size: 0x8, addend: 0x0, symName: __ZSt13__invoke_implIvRZN8Renderer11setupShapesEvEUlvE8_JEET_St14__invoke_otherOT0_DpOT1_, symObjAddr: 0xBD14, symBinAddr: 0x10000FC0C, symSize: 0x28 }
  - { offset: 0x18905, size: 0x8, addend: 0x0, symName: __ZSt7forwardIRZN8Renderer11setupShapesEvEUlvE8_EOT_RNSt16remove_referenceIS3_E4typeE, symObjAddr: 0xBD00, symBinAddr: 0x10000FBF8, symSize: 0x14 }
  - { offset: 0x18942, size: 0x8, addend: 0x0, symName: __ZNKSt9_Any_data9_M_accessIPZN8Renderer11setupShapesEvEUlvE8_EERKT_v, symObjAddr: 0xBCE4, symBinAddr: 0x10000FBDC, symSize: 0x1C }
  - { offset: 0x18971, size: 0x8, addend: 0x0, symName: __ZNSt14_Function_base13_Base_managerIZN8Renderer11setupShapesEvEUlvE7_E10_M_destroyERSt9_Any_dataSt17integral_constantIbLb0EE, symObjAddr: 0xBC98, symBinAddr: 0x10000FB90, symSize: 0x4C }
  - { offset: 0x189A3, size: 0x8, addend: 0x0, symName: __ZNSt14_Function_base13_Base_managerIZN8Renderer11setupShapesEvEUlvE7_E15_M_init_functorIRKS2_EEvRSt9_Any_dataOT_, symObjAddr: 0xBC5C, symBinAddr: 0x10000FB54, symSize: 0x3C }
  - { offset: 0x189E5, size: 0x8, addend: 0x0, symName: __ZSt13__invoke_implIvRZN8Renderer11setupShapesEvEUlvE7_JEET_St14__invoke_otherOT0_DpOT1_, symObjAddr: 0xBC34, symBinAddr: 0x10000FB2C, symSize: 0x28 }
  - { offset: 0x18A36, size: 0x8, addend: 0x0, symName: __ZSt7forwardIRZN8Renderer11setupShapesEvEUlvE7_EOT_RNSt16remove_referenceIS3_E4typeE, symObjAddr: 0xBC20, symBinAddr: 0x10000FB18, symSize: 0x14 }
  - { offset: 0x18A73, size: 0x8, addend: 0x0, symName: __ZNKSt9_Any_data9_M_accessIPZN8Renderer11setupShapesEvEUlvE7_EERKT_v, symObjAddr: 0xBC04, symBinAddr: 0x10000FAFC, symSize: 0x1C }
  - { offset: 0x18AA2, size: 0x8, addend: 0x0, symName: __ZNSt14_Function_base13_Base_managerIZN8Renderer11setupShapesEvEUlvE6_E10_M_destroyERSt9_Any_dataSt17integral_constantIbLb0EE, symObjAddr: 0xBBB8, symBinAddr: 0x10000FAB0, symSize: 0x4C }
  - { offset: 0x18AD4, size: 0x8, addend: 0x0, symName: __ZNSt14_Function_base13_Base_managerIZN8Renderer11setupShapesEvEUlvE6_E15_M_init_functorIRKS2_EEvRSt9_Any_dataOT_, symObjAddr: 0xBB7C, symBinAddr: 0x10000FA74, symSize: 0x3C }
  - { offset: 0x18B16, size: 0x8, addend: 0x0, symName: __ZSt13__invoke_implIvRZN8Renderer11setupShapesEvEUlvE6_JEET_St14__invoke_otherOT0_DpOT1_, symObjAddr: 0xBB54, symBinAddr: 0x10000FA4C, symSize: 0x28 }
  - { offset: 0x18B67, size: 0x8, addend: 0x0, symName: __ZSt7forwardIRZN8Renderer11setupShapesEvEUlvE6_EOT_RNSt16remove_referenceIS3_E4typeE, symObjAddr: 0xBB40, symBinAddr: 0x10000FA38, symSize: 0x14 }
  - { offset: 0x18BA4, size: 0x8, addend: 0x0, symName: __ZNKSt9_Any_data9_M_accessIPZN8Renderer11setupShapesEvEUlvE6_EERKT_v, symObjAddr: 0xBB24, symBinAddr: 0x10000FA1C, symSize: 0x1C }
  - { offset: 0x18BD3, size: 0x8, addend: 0x0, symName: __ZNSt14_Function_base13_Base_managerIZN8Renderer11setupShapesEvEUlvE5_E10_M_destroyERSt9_Any_dataSt17integral_constantIbLb0EE, symObjAddr: 0xBAD8, symBinAddr: 0x10000F9D0, symSize: 0x4C }
  - { offset: 0x18C05, size: 0x8, addend: 0x0, symName: __ZNSt14_Function_base13_Base_managerIZN8Renderer11setupShapesEvEUlvE5_E15_M_init_functorIRKS2_EEvRSt9_Any_dataOT_, symObjAddr: 0xBA9C, symBinAddr: 0x10000F994, symSize: 0x3C }
  - { offset: 0x18C47, size: 0x8, addend: 0x0, symName: __ZSt13__invoke_implIvRZN8Renderer11setupShapesEvEUlvE5_JEET_St14__invoke_otherOT0_DpOT1_, symObjAddr: 0xBA74, symBinAddr: 0x10000F96C, symSize: 0x28 }
  - { offset: 0x18C98, size: 0x8, addend: 0x0, symName: __ZSt7forwardIRZN8Renderer11setupShapesEvEUlvE5_EOT_RNSt16remove_referenceIS3_E4typeE, symObjAddr: 0xBA60, symBinAddr: 0x10000F958, symSize: 0x14 }
  - { offset: 0x18CD5, size: 0x8, addend: 0x0, symName: __ZNKSt9_Any_data9_M_accessIPZN8Renderer11setupShapesEvEUlvE5_EERKT_v, symObjAddr: 0xBA44, symBinAddr: 0x10000F93C, symSize: 0x1C }
  - { offset: 0x18D04, size: 0x8, addend: 0x0, symName: __ZNSt14_Function_base13_Base_managerIZN8Renderer11setupShapesEvEUlvE4_E10_M_destroyERSt9_Any_dataSt17integral_constantIbLb0EE, symObjAddr: 0xB9F8, symBinAddr: 0x10000F8F0, symSize: 0x4C }
  - { offset: 0x18D36, size: 0x8, addend: 0x0, symName: __ZNSt14_Function_base13_Base_managerIZN8Renderer11setupShapesEvEUlvE4_E15_M_init_functorIRKS2_EEvRSt9_Any_dataOT_, symObjAddr: 0xB9BC, symBinAddr: 0x10000F8B4, symSize: 0x3C }
  - { offset: 0x18D78, size: 0x8, addend: 0x0, symName: __ZSt13__invoke_implIvRZN8Renderer11setupShapesEvEUlvE4_JEET_St14__invoke_otherOT0_DpOT1_, symObjAddr: 0xB994, symBinAddr: 0x10000F88C, symSize: 0x28 }
  - { offset: 0x18DC9, size: 0x8, addend: 0x0, symName: __ZSt7forwardIRZN8Renderer11setupShapesEvEUlvE4_EOT_RNSt16remove_referenceIS3_E4typeE, symObjAddr: 0xB980, symBinAddr: 0x10000F878, symSize: 0x14 }
  - { offset: 0x18E06, size: 0x8, addend: 0x0, symName: __ZNKSt9_Any_data9_M_accessIPZN8Renderer11setupShapesEvEUlvE4_EERKT_v, symObjAddr: 0xB964, symBinAddr: 0x10000F85C, symSize: 0x1C }
  - { offset: 0x18E35, size: 0x8, addend: 0x0, symName: __ZNSt14_Function_base13_Base_managerIZN8Renderer11setupShapesEvEUlvE3_E10_M_destroyERSt9_Any_dataSt17integral_constantIbLb0EE, symObjAddr: 0xB918, symBinAddr: 0x10000F810, symSize: 0x4C }
  - { offset: 0x18E67, size: 0x8, addend: 0x0, symName: __ZNSt14_Function_base13_Base_managerIZN8Renderer11setupShapesEvEUlvE3_E15_M_init_functorIRKS2_EEvRSt9_Any_dataOT_, symObjAddr: 0xB8DC, symBinAddr: 0x10000F7D4, symSize: 0x3C }
  - { offset: 0x18EA9, size: 0x8, addend: 0x0, symName: __ZSt13__invoke_implIvRZN8Renderer11setupShapesEvEUlvE3_JEET_St14__invoke_otherOT0_DpOT1_, symObjAddr: 0xB8B4, symBinAddr: 0x10000F7AC, symSize: 0x28 }
  - { offset: 0x18EFA, size: 0x8, addend: 0x0, symName: __ZSt7forwardIRZN8Renderer11setupShapesEvEUlvE3_EOT_RNSt16remove_referenceIS3_E4typeE, symObjAddr: 0xB8A0, symBinAddr: 0x10000F798, symSize: 0x14 }
  - { offset: 0x18F37, size: 0x8, addend: 0x0, symName: __ZNKSt9_Any_data9_M_accessIPZN8Renderer11setupShapesEvEUlvE3_EERKT_v, symObjAddr: 0xB884, symBinAddr: 0x10000F77C, symSize: 0x1C }
  - { offset: 0x18F66, size: 0x8, addend: 0x0, symName: __ZNSt14_Function_base13_Base_managerIZN8Renderer11setupShapesEvEUlvE2_E10_M_destroyERSt9_Any_dataSt17integral_constantIbLb0EE, symObjAddr: 0xB838, symBinAddr: 0x10000F730, symSize: 0x4C }
  - { offset: 0x18F98, size: 0x8, addend: 0x0, symName: __ZNSt14_Function_base13_Base_managerIZN8Renderer11setupShapesEvEUlvE2_E15_M_init_functorIRKS2_EEvRSt9_Any_dataOT_, symObjAddr: 0xB7FC, symBinAddr: 0x10000F6F4, symSize: 0x3C }
  - { offset: 0x18FDA, size: 0x8, addend: 0x0, symName: __ZSt13__invoke_implIvRZN8Renderer11setupShapesEvEUlvE2_JEET_St14__invoke_otherOT0_DpOT1_, symObjAddr: 0xB7D4, symBinAddr: 0x10000F6CC, symSize: 0x28 }
  - { offset: 0x1902B, size: 0x8, addend: 0x0, symName: __ZSt7forwardIRZN8Renderer11setupShapesEvEUlvE2_EOT_RNSt16remove_referenceIS3_E4typeE, symObjAddr: 0xB7C0, symBinAddr: 0x10000F6B8, symSize: 0x14 }
  - { offset: 0x19068, size: 0x8, addend: 0x0, symName: __ZNKSt9_Any_data9_M_accessIPZN8Renderer11setupShapesEvEUlvE2_EERKT_v, symObjAddr: 0xB7A4, symBinAddr: 0x10000F69C, symSize: 0x1C }
  - { offset: 0x190E4, size: 0x8, addend: 0x0, symName: __ZNSt23_Sp_counted_ptr_inplaceI5ShapeSaIvELN9__gnu_cxx12_Lock_policyE2EEC1IJRSt6vectorIfSaIfEES9_EEES1_DpOT_, symObjAddr: 0xB6E4, symBinAddr: 0x10000F5DC, symSize: 0xC0 }
  - { offset: 0x19174, size: 0x8, addend: 0x0, symName: __ZNSt20__uninitialized_copyILb1EE13__uninit_copyIPKfPfEET0_T_S6_S5_, symObjAddr: 0xB6B8, symBinAddr: 0x10000F5B0, symSize: 0x2C }
  - { offset: 0x19200, size: 0x8, addend: 0x0, symName: __ZNSt14_Function_base13_Base_managerIZN8Renderer11setupShapesEvEUlvE1_E10_M_destroyERSt9_Any_dataSt17integral_constantIbLb0EE, symObjAddr: 0xB66C, symBinAddr: 0x10000F564, symSize: 0x4C }
  - { offset: 0x19232, size: 0x8, addend: 0x0, symName: __ZNSt14_Function_base13_Base_managerIZN8Renderer11setupShapesEvEUlvE1_E15_M_init_functorIRKS2_EEvRSt9_Any_dataOT_, symObjAddr: 0xB630, symBinAddr: 0x10000F528, symSize: 0x3C }
  - { offset: 0x19274, size: 0x8, addend: 0x0, symName: __ZSt13__invoke_implIvRZN8Renderer11setupShapesEvEUlvE1_JEET_St14__invoke_otherOT0_DpOT1_, symObjAddr: 0xB608, symBinAddr: 0x10000F500, symSize: 0x28 }
  - { offset: 0x192C5, size: 0x8, addend: 0x0, symName: __ZSt7forwardIRZN8Renderer11setupShapesEvEUlvE1_EOT_RNSt16remove_referenceIS3_E4typeE, symObjAddr: 0xB5F4, symBinAddr: 0x10000F4EC, symSize: 0x14 }
  - { offset: 0x19302, size: 0x8, addend: 0x0, symName: __ZNKSt9_Any_data9_M_accessIPZN8Renderer11setupShapesEvEUlvE1_EERKT_v, symObjAddr: 0xB5D8, symBinAddr: 0x10000F4D0, symSize: 0x1C }
  - { offset: 0x19331, size: 0x8, addend: 0x0, symName: __ZNSt14_Function_base13_Base_managerIZN8Renderer11setupShapesEvEUlvE0_E10_M_destroyERSt9_Any_dataSt17integral_constantIbLb0EE, symObjAddr: 0xB58C, symBinAddr: 0x10000F484, symSize: 0x4C }
  - { offset: 0x19363, size: 0x8, addend: 0x0, symName: __ZNSt14_Function_base13_Base_managerIZN8Renderer11setupShapesEvEUlvE0_E15_M_init_functorIRKS2_EEvRSt9_Any_dataOT_, symObjAddr: 0xB550, symBinAddr: 0x10000F448, symSize: 0x3C }
  - { offset: 0x193A5, size: 0x8, addend: 0x0, symName: __ZSt13__invoke_implIvRZN8Renderer11setupShapesEvEUlvE0_JEET_St14__invoke_otherOT0_DpOT1_, symObjAddr: 0xB528, symBinAddr: 0x10000F420, symSize: 0x28 }
  - { offset: 0x193F6, size: 0x8, addend: 0x0, symName: __ZSt7forwardIRZN8Renderer11setupShapesEvEUlvE0_EOT_RNSt16remove_referenceIS3_E4typeE, symObjAddr: 0xB514, symBinAddr: 0x10000F40C, symSize: 0x14 }
  - { offset: 0x19433, size: 0x8, addend: 0x0, symName: __ZNKSt9_Any_data9_M_accessIPZN8Renderer11setupShapesEvEUlvE0_EERKT_v, symObjAddr: 0xB4F8, symBinAddr: 0x10000F3F0, symSize: 0x1C }
  - { offset: 0x19466, size: 0x8, addend: 0x0, symName: __ZNKSt10_Select1stISt4pairIKiSt10shared_ptrI5ShapeEEEclERKS5_, symObjAddr: 0xB4E0, symBinAddr: 0x10000F3D8, symSize: 0x18 }
  - { offset: 0x194A1, size: 0x8, addend: 0x0, symName: __ZNKSt13_Rb_tree_nodeISt4pairIKiSt10shared_ptrI5ShapeEEE9_M_valptrEv, symObjAddr: 0xB4C0, symBinAddr: 0x10000F3B8, symSize: 0x20 }
  - { offset: 0x194CE, size: 0x8, addend: 0x0, symName: __ZSt7forwardIRPSt18_Rb_tree_node_baseEOT_RNSt16remove_referenceIS3_E4typeE, symObjAddr: 0xB4AC, symBinAddr: 0x10000F3A4, symSize: 0x14 }
  - { offset: 0x1954C, size: 0x8, addend: 0x0, symName: __ZNSt4pairIPSt18_Rb_tree_node_baseS1_EC1IRPSt13_Rb_tree_nodeIS_IKiSt10shared_ptrI5ShapeEEERS1_Lb1EEEOT_OT0_, symObjAddr: 0xB464, symBinAddr: 0x10000F35C, symSize: 0x48 }
  - { offset: 0x19596, size: 0x8, addend: 0x0, symName: __ZNSt8_Rb_treeIiSt4pairIKiSt10shared_ptrI5ShapeEESt10_Select1stIS5_ESt4lessIiESaIS5_EE5beginEv, symObjAddr: 0xB43C, symBinAddr: 0x10000F334, symSize: 0x28 }
  - { offset: 0x195C0, size: 0x8, addend: 0x0, symName: __ZNSt8_Rb_treeIiSt4pairIKiSt10shared_ptrI5ShapeEESt10_Select1stIS5_ESt4lessIiESaIS5_EE17_M_construct_nodeIJRKSt21piecewise_construct_tSt5tupleIJOiEESG_IJEEEEEvPSt13_Rb_tree_nodeIS5_EDpOT_, symObjAddr: 0xB2C0, symBinAddr: 0x10000F1B8, symSize: 0x17C }
  - { offset: 0x196C1, size: 0x8, addend: 0x0, symName: __ZNSt8_Rb_treeIiSt4pairIKiSt10shared_ptrI5ShapeEESt10_Select1stIS5_ESt4lessIiESaIS5_EE11_M_get_nodeEv, symObjAddr: 0xB284, symBinAddr: 0x10000F17C, symSize: 0x3C }
  - { offset: 0x19748, size: 0x8, addend: 0x0, symName: __ZNSt10_Head_baseILm0EOiLb0EEC2IiEEOT_, symObjAddr: 0xB254, symBinAddr: 0x10000F14C, symSize: 0x30 }
  - { offset: 0x19784, size: 0x8, addend: 0x0, symName: __ZN9__gnu_cxx16__aligned_membufISt4pairIKiSt10shared_ptrI5ShapeEEE7_M_addrEv, symObjAddr: 0xB240, symBinAddr: 0x10000F138, symSize: 0x14 }
  - { offset: 0x197AA, size: 0x8, addend: 0x0, symName: __ZNSt14_Function_base13_Base_managerIZN8Renderer11setupShapesEvEUlvE_E10_M_destroyERSt9_Any_dataSt17integral_constantIbLb0EE, symObjAddr: 0xB1F4, symBinAddr: 0x10000F0EC, symSize: 0x4C }
  - { offset: 0x197DC, size: 0x8, addend: 0x0, symName: __ZNSt14_Function_base13_Base_managerIZN8Renderer11setupShapesEvEUlvE_E15_M_init_functorIRKS2_EEvRSt9_Any_dataOT_, symObjAddr: 0xB1B8, symBinAddr: 0x10000F0B0, symSize: 0x3C }
  - { offset: 0x1981E, size: 0x8, addend: 0x0, symName: __ZSt13__invoke_implIvRZN8Renderer11setupShapesEvEUlvE_JEET_St14__invoke_otherOT0_DpOT1_, symObjAddr: 0xB190, symBinAddr: 0x10000F088, symSize: 0x28 }
  - { offset: 0x1986F, size: 0x8, addend: 0x0, symName: __ZSt7forwardIRZN8Renderer11setupShapesEvEUlvE_EOT_RNSt16remove_referenceIS3_E4typeE, symObjAddr: 0xB17C, symBinAddr: 0x10000F074, symSize: 0x14 }
  - { offset: 0x198AC, size: 0x8, addend: 0x0, symName: __ZNKSt9_Any_data9_M_accessIPZN8Renderer11setupShapesEvEUlvE_EERKT_v, symObjAddr: 0xB160, symBinAddr: 0x10000F058, symSize: 0x1C }
  - { offset: 0x19907, size: 0x8, addend: 0x0, symName: __ZNSt10shared_ptrI5ShapeEC1EOS1_, symObjAddr: 0xB124, symBinAddr: 0x10000F01C, symSize: 0x3C }
  - { offset: 0x19936, size: 0x8, addend: 0x0, symName: __ZNSt23_Sp_counted_ptr_inplaceI5ShapeSaIvELN9__gnu_cxx12_Lock_policyE2EE6_M_ptrEv, symObjAddr: 0xB104, symBinAddr: 0x10000EFFC, symSize: 0x20 }
  - { offset: 0x19960, size: 0x8, addend: 0x0, symName: __ZNSt15__allocated_ptrISaISt23_Sp_counted_ptr_inplaceI5ShapeSaIvELN9__gnu_cxx12_Lock_policyE2EEEEaSEDn, symObjAddr: 0xB0E4, symBinAddr: 0x10000EFDC, symSize: 0x20 }
  - { offset: 0x199E6, size: 0x8, addend: 0x0, symName: __ZNSt23_Sp_counted_ptr_inplaceI5ShapeSaIvELN9__gnu_cxx12_Lock_policyE2EEC1IJifN3glm3vecILi3EfLNS6_9qualifierE0EEEEEES1_DpOT_, symObjAddr: 0xAFF8, symBinAddr: 0x10000EEF0, symSize: 0xEC }
  - { offset: 0x19A92, size: 0x8, addend: 0x0, symName: __ZNSt15__allocated_ptrISaISt23_Sp_counted_ptr_inplaceI5ShapeSaIvELN9__gnu_cxx12_Lock_policyE2EEEE3getEv, symObjAddr: 0xAFD8, symBinAddr: 0x10000EED0, symSize: 0x20 }
  - { offset: 0x19AE0, size: 0x8, addend: 0x0, symName: __ZNSt15__allocated_ptrISaISt23_Sp_counted_ptr_inplaceI5ShapeSaIvELN9__gnu_cxx12_Lock_policyE2EEEED1Ev, symObjAddr: 0xAF7C, symBinAddr: 0x10000EE74, symSize: 0x5C }
  - { offset: 0x19B37, size: 0x8, addend: 0x0, symName: __ZSt18__allocate_guardedISaISt23_Sp_counted_ptr_inplaceI5ShapeSaIvELN9__gnu_cxx12_Lock_policyE2EEEESt15__allocated_ptrIT_ERS8_, symObjAddr: 0xAF24, symBinAddr: 0x10000EE1C, symSize: 0x58 }
  - { offset: 0x19BD9, size: 0x8, addend: 0x0, symName: __ZNSt23_Sp_counted_ptr_inplaceI6ShaderSaIvELN9__gnu_cxx12_Lock_policyE2EE6_M_ptrEv, symObjAddr: 0xAF04, symBinAddr: 0x10000EDFC, symSize: 0x20 }
  - { offset: 0x19C03, size: 0x8, addend: 0x0, symName: __ZNSt15__allocated_ptrISaISt23_Sp_counted_ptr_inplaceI6ShaderSaIvELN9__gnu_cxx12_Lock_policyE2EEEEaSEDn, symObjAddr: 0xAEE4, symBinAddr: 0x10000EDDC, symSize: 0x20 }
  - { offset: 0x19C69, size: 0x8, addend: 0x0, symName: __ZNSt23_Sp_counted_ptr_inplaceI6ShaderSaIvELN9__gnu_cxx12_Lock_policyE2EEC1IJEEES1_DpOT_, symObjAddr: 0xAE7C, symBinAddr: 0x10000ED74, symSize: 0x68 }
  - { offset: 0x19CCD, size: 0x8, addend: 0x0, symName: __ZNSt15__allocated_ptrISaISt23_Sp_counted_ptr_inplaceI6ShaderSaIvELN9__gnu_cxx12_Lock_policyE2EEEE3getEv, symObjAddr: 0xAE5C, symBinAddr: 0x10000ED54, symSize: 0x20 }
  - { offset: 0x19D1B, size: 0x8, addend: 0x0, symName: __ZNSt15__allocated_ptrISaISt23_Sp_counted_ptr_inplaceI6ShaderSaIvELN9__gnu_cxx12_Lock_policyE2EEEED1Ev, symObjAddr: 0xAE00, symBinAddr: 0x10000ECF8, symSize: 0x5C }
  - { offset: 0x19D72, size: 0x8, addend: 0x0, symName: __ZSt18__allocate_guardedISaISt23_Sp_counted_ptr_inplaceI6ShaderSaIvELN9__gnu_cxx12_Lock_policyE2EEEESt15__allocated_ptrIT_ERS8_, symObjAddr: 0xADA8, symBinAddr: 0x10000ECA0, symSize: 0x58 }
  - { offset: 0x19E73, size: 0x8, addend: 0x0, symName: __ZNSt8_Rb_treeIiSt4pairIKiSt10shared_ptrI5ShapeEESt10_Select1stIS5_ESt4lessIiESaIS5_EE21_M_get_Node_allocatorEv, symObjAddr: 0xAD94, symBinAddr: 0x10000EC8C, symSize: 0x14 }
  - { offset: 0x19E99, size: 0x8, addend: 0x0, symName: __ZSt14__relocate_a_1IffENSt9enable_ifIXsrSt24__is_bitwise_relocatableIT_vE5valueEPS2_E4typeES4_S4_S4_RSaIT0_E, symObjAddr: 0xAD30, symBinAddr: 0x10000EC28, symSize: 0x64 }
  - { offset: 0x19F19, size: 0x8, addend: 0x0, symName: __ZSt14__copy_move_a2ILb0EPfS0_ET1_T0_S2_S1_, symObjAddr: 0xAD04, symBinAddr: 0x10000EBFC, symSize: 0x2C }
  - { offset: 0x19F85, size: 0x8, addend: 0x0, symName: __ZNK9__gnu_cxx17__normal_iteratorIPfSt6vectorIfSaIfEEEplEl, symObjAddr: 0xACC4, symBinAddr: 0x10000EBBC, symSize: 0x40 }
  - { offset: 0x19FBC, size: 0x8, addend: 0x0, symName: __ZSt14__copy_move_a2ILb0EPKfPfET1_T0_S4_S3_, symObjAddr: 0xAC98, symBinAddr: 0x10000EB90, symSize: 0x2C }
  - { offset: 0x1A028, size: 0x8, addend: 0x0, symName: __ZNK9__gnu_cxx17__normal_iteratorIPKfSt6vectorIfSaIfEEE4baseEv, symObjAddr: 0xAC84, symBinAddr: 0x10000EB7C, symSize: 0x14 }
  - { offset: 0x1A04E, size: 0x8, addend: 0x0, symName: __ZNSt20__uninitialized_copyILb1EE13__uninit_copyIN9__gnu_cxx17__normal_iteratorIPKfSt6vectorIfSaIfEEEEPfEET0_T_SC_SB_, symObjAddr: 0xAC58, symBinAddr: 0x10000EB50, symSize: 0x2C }
  - { offset: 0x1A0AD, size: 0x8, addend: 0x0, symName: __ZNSt15__new_allocatorIfE8allocateEmPKv, symObjAddr: 0xABDC, symBinAddr: 0x10000EAD4, symSize: 0x7C }
  - { offset: 0x1A13C, size: 0x8, addend: 0x0, symName: __ZSt3getILm0EJP8RendererSt14default_deleteIS0_EEERKNSt13tuple_elementIXT_ESt5tupleIJDpT0_EEE4typeERKS8_, symObjAddr: 0xABC0, symBinAddr: 0x10000EAB8, symSize: 0x1C }
  - { offset: 0x1A187, size: 0x8, addend: 0x0, symName: __ZSt3getILm0EJP6WindowSt14default_deleteIS0_EEERKNSt13tuple_elementIXT_ESt5tupleIJDpT0_EEE4typeERKS8_, symObjAddr: 0xABA4, symBinAddr: 0x10000EA9C, symSize: 0x1C }
  - { offset: 0x1A1D2, size: 0x8, addend: 0x0, symName: __ZSt3getILm1EJP8RendererSt14default_deleteIS0_EEERNSt13tuple_elementIXT_ESt5tupleIJDpT0_EEE4typeERS8_, symObjAddr: 0xAB88, symBinAddr: 0x10000EA80, symSize: 0x1C }
  - { offset: 0x1A216, size: 0x8, addend: 0x0, symName: __ZSt12__get_helperILm0EP8RendererJSt14default_deleteIS0_EEERT0_RSt11_Tuple_implIXT_EJS4_DpT1_EE, symObjAddr: 0xAB6C, symBinAddr: 0x10000EA64, symSize: 0x1C }
  - { offset: 0x1A286, size: 0x8, addend: 0x0, symName: __ZNSt5tupleIJP8RendererSt14default_deleteIS0_EEEC1ILb1ELb1EEEv, symObjAddr: 0xAB4C, symBinAddr: 0x10000EA44, symSize: 0x20 }
  - { offset: 0x1A2B9, size: 0x8, addend: 0x0, symName: __ZSt3getILm1EJP6WindowSt14default_deleteIS0_EEERNSt13tuple_elementIXT_ESt5tupleIJDpT0_EEE4typeERS8_, symObjAddr: 0xAB30, symBinAddr: 0x10000EA28, symSize: 0x1C }
  - { offset: 0x1A2FD, size: 0x8, addend: 0x0, symName: __ZSt12__get_helperILm0EP6WindowJSt14default_deleteIS0_EEERT0_RSt11_Tuple_implIXT_EJS4_DpT1_EE, symObjAddr: 0xAB14, symBinAddr: 0x10000EA0C, symSize: 0x1C }
  - { offset: 0x1A36D, size: 0x8, addend: 0x0, symName: __ZNSt5tupleIJP6WindowSt14default_deleteIS0_EEEC1ILb1ELb1EEEv, symObjAddr: 0xAAF4, symBinAddr: 0x10000E9EC, symSize: 0x20 }
  - { offset: 0x1A39D, size: 0x8, addend: 0x0, symName: __ZNSt8_Rb_treeIiSt4pairIKiSt10shared_ptrI5ShapeEESt10_Select1stIS5_ESt4lessIiESaIS5_EE14_M_create_nodeIJRKSt21piecewise_construct_tSt5tupleIJRS1_EESG_IJEEEEEPSt13_Rb_tree_nodeIS5_EDpOT_, symObjAddr: 0xAA84, symBinAddr: 0x10000E97C, symSize: 0x70 }
  - { offset: 0x1A436, size: 0x8, addend: 0x0, symName: __ZNSt10_Head_baseILm0ERKiLb0EEC2ES1_, symObjAddr: 0xAA60, symBinAddr: 0x10000E958, symSize: 0x24 }
  - { offset: 0x1A461, size: 0x8, addend: 0x0, symName: __ZNSt14_Function_base13_Base_managerIZN8Renderer11setupShapesEvEUlvE11_E10_M_managerERSt9_Any_dataRKS4_St18_Manager_operation, symObjAddr: 0xA9A0, symBinAddr: 0x10000E898, symSize: 0xC0 }
  - { offset: 0x1A4B5, size: 0x8, addend: 0x0, symName: __ZNSt9_Any_data9_M_accessIPZN8Renderer11setupShapesEvEUlvE11_EERT_v, symObjAddr: 0xA984, symBinAddr: 0x10000E87C, symSize: 0x1C }
  - { offset: 0x1A4E4, size: 0x8, addend: 0x0, symName: __ZSt10__invoke_rIvRZN8Renderer11setupShapesEvEUlvE11_JEENSt9enable_ifIX16is_invocable_r_vIT_T0_JDpT1_EEES4_E4typeEOS5_DpOS6_, symObjAddr: 0xA950, symBinAddr: 0x10000E848, symSize: 0x34 }
  - { offset: 0x1A525, size: 0x8, addend: 0x0, symName: __ZNSt14_Function_base13_Base_managerIZN8Renderer11setupShapesEvEUlvE11_E14_M_get_pointerERKSt9_Any_data, symObjAddr: 0xA930, symBinAddr: 0x10000E828, symSize: 0x20 }
  - { offset: 0x1A555, size: 0x8, addend: 0x0, symName: __ZNSt14_Function_base13_Base_managerIZN8Renderer11setupShapesEvEUlvE11_E9_M_createIS2_EEvRSt9_Any_dataOT_St17integral_constantIbLb0EE, symObjAddr: 0xA8DC, symBinAddr: 0x10000E7D4, symSize: 0x54 }
  - { offset: 0x1A5A0, size: 0x8, addend: 0x0, symName: __ZNSt14_Function_base13_Base_managerIZN8Renderer11setupShapesEvEUlvE10_E10_M_managerERSt9_Any_dataRKS4_St18_Manager_operation, symObjAddr: 0xA7F4, symBinAddr: 0x10000E6EC, symSize: 0xC0 }
  - { offset: 0x1A5F4, size: 0x8, addend: 0x0, symName: __ZNSt9_Any_data9_M_accessIPZN8Renderer11setupShapesEvEUlvE10_EERT_v, symObjAddr: 0xA7D8, symBinAddr: 0x10000E6D0, symSize: 0x1C }
  - { offset: 0x1A623, size: 0x8, addend: 0x0, symName: __ZSt10__invoke_rIvRZN8Renderer11setupShapesEvEUlvE10_JEENSt9enable_ifIX16is_invocable_r_vIT_T0_JDpT1_EEES4_E4typeEOS5_DpOS6_, symObjAddr: 0xA7A4, symBinAddr: 0x10000E69C, symSize: 0x34 }
  - { offset: 0x1A664, size: 0x8, addend: 0x0, symName: __ZNSt14_Function_base13_Base_managerIZN8Renderer11setupShapesEvEUlvE10_E14_M_get_pointerERKSt9_Any_data, symObjAddr: 0xA784, symBinAddr: 0x10000E67C, symSize: 0x20 }
  - { offset: 0x1A694, size: 0x8, addend: 0x0, symName: __ZNSt14_Function_base13_Base_managerIZN8Renderer11setupShapesEvEUlvE10_E9_M_createIS2_EEvRSt9_Any_dataOT_St17integral_constantIbLb0EE, symObjAddr: 0xA730, symBinAddr: 0x10000E628, symSize: 0x54 }
  - { offset: 0x1A6DF, size: 0x8, addend: 0x0, symName: __ZNSt14_Function_base13_Base_managerIZN8Renderer11setupShapesEvEUlvE9_E10_M_managerERSt9_Any_dataRKS4_St18_Manager_operation, symObjAddr: 0xA648, symBinAddr: 0x10000E540, symSize: 0xC0 }
  - { offset: 0x1A733, size: 0x8, addend: 0x0, symName: __ZNSt9_Any_data9_M_accessIPZN8Renderer11setupShapesEvEUlvE9_EERT_v, symObjAddr: 0xA62C, symBinAddr: 0x10000E524, symSize: 0x1C }
  - { offset: 0x1A762, size: 0x8, addend: 0x0, symName: __ZSt10__invoke_rIvRZN8Renderer11setupShapesEvEUlvE9_JEENSt9enable_ifIX16is_invocable_r_vIT_T0_JDpT1_EEES4_E4typeEOS5_DpOS6_, symObjAddr: 0xA5F8, symBinAddr: 0x10000E4F0, symSize: 0x34 }
  - { offset: 0x1A7A3, size: 0x8, addend: 0x0, symName: __ZNSt14_Function_base13_Base_managerIZN8Renderer11setupShapesEvEUlvE9_E14_M_get_pointerERKSt9_Any_data, symObjAddr: 0xA5D8, symBinAddr: 0x10000E4D0, symSize: 0x20 }
  - { offset: 0x1A7D3, size: 0x8, addend: 0x0, symName: __ZNSt14_Function_base13_Base_managerIZN8Renderer11setupShapesEvEUlvE9_E9_M_createIS2_EEvRSt9_Any_dataOT_St17integral_constantIbLb0EE, symObjAddr: 0xA584, symBinAddr: 0x10000E47C, symSize: 0x54 }
  - { offset: 0x1A81E, size: 0x8, addend: 0x0, symName: __ZNSt14_Function_base13_Base_managerIZN8Renderer11setupShapesEvEUlvE8_E10_M_managerERSt9_Any_dataRKS4_St18_Manager_operation, symObjAddr: 0xA49C, symBinAddr: 0x10000E394, symSize: 0xC0 }
  - { offset: 0x1A872, size: 0x8, addend: 0x0, symName: __ZNSt9_Any_data9_M_accessIPZN8Renderer11setupShapesEvEUlvE8_EERT_v, symObjAddr: 0xA480, symBinAddr: 0x10000E378, symSize: 0x1C }
  - { offset: 0x1A8A1, size: 0x8, addend: 0x0, symName: __ZSt10__invoke_rIvRZN8Renderer11setupShapesEvEUlvE8_JEENSt9enable_ifIX16is_invocable_r_vIT_T0_JDpT1_EEES4_E4typeEOS5_DpOS6_, symObjAddr: 0xA44C, symBinAddr: 0x10000E344, symSize: 0x34 }
  - { offset: 0x1A8E2, size: 0x8, addend: 0x0, symName: __ZNSt14_Function_base13_Base_managerIZN8Renderer11setupShapesEvEUlvE8_E14_M_get_pointerERKSt9_Any_data, symObjAddr: 0xA42C, symBinAddr: 0x10000E324, symSize: 0x20 }
  - { offset: 0x1A912, size: 0x8, addend: 0x0, symName: __ZNSt14_Function_base13_Base_managerIZN8Renderer11setupShapesEvEUlvE8_E9_M_createIS2_EEvRSt9_Any_dataOT_St17integral_constantIbLb0EE, symObjAddr: 0xA3D8, symBinAddr: 0x10000E2D0, symSize: 0x54 }
  - { offset: 0x1A95D, size: 0x8, addend: 0x0, symName: __ZNSt14_Function_base13_Base_managerIZN8Renderer11setupShapesEvEUlvE7_E10_M_managerERSt9_Any_dataRKS4_St18_Manager_operation, symObjAddr: 0xA2F0, symBinAddr: 0x10000E1E8, symSize: 0xC0 }
  - { offset: 0x1A9B1, size: 0x8, addend: 0x0, symName: __ZNSt9_Any_data9_M_accessIPZN8Renderer11setupShapesEvEUlvE7_EERT_v, symObjAddr: 0xA2D4, symBinAddr: 0x10000E1CC, symSize: 0x1C }
  - { offset: 0x1A9E0, size: 0x8, addend: 0x0, symName: __ZSt10__invoke_rIvRZN8Renderer11setupShapesEvEUlvE7_JEENSt9enable_ifIX16is_invocable_r_vIT_T0_JDpT1_EEES4_E4typeEOS5_DpOS6_, symObjAddr: 0xA2A0, symBinAddr: 0x10000E198, symSize: 0x34 }
  - { offset: 0x1AA21, size: 0x8, addend: 0x0, symName: __ZNSt14_Function_base13_Base_managerIZN8Renderer11setupShapesEvEUlvE7_E14_M_get_pointerERKSt9_Any_data, symObjAddr: 0xA280, symBinAddr: 0x10000E178, symSize: 0x20 }
  - { offset: 0x1AA51, size: 0x8, addend: 0x0, symName: __ZNSt14_Function_base13_Base_managerIZN8Renderer11setupShapesEvEUlvE7_E9_M_createIS2_EEvRSt9_Any_dataOT_St17integral_constantIbLb0EE, symObjAddr: 0xA22C, symBinAddr: 0x10000E124, symSize: 0x54 }
  - { offset: 0x1AA9C, size: 0x8, addend: 0x0, symName: __ZNSt14_Function_base13_Base_managerIZN8Renderer11setupShapesEvEUlvE6_E10_M_managerERSt9_Any_dataRKS4_St18_Manager_operation, symObjAddr: 0xA144, symBinAddr: 0x10000E03C, symSize: 0xC0 }
  - { offset: 0x1AAF0, size: 0x8, addend: 0x0, symName: __ZNSt9_Any_data9_M_accessIPZN8Renderer11setupShapesEvEUlvE6_EERT_v, symObjAddr: 0xA128, symBinAddr: 0x10000E020, symSize: 0x1C }
  - { offset: 0x1AB1F, size: 0x8, addend: 0x0, symName: __ZSt10__invoke_rIvRZN8Renderer11setupShapesEvEUlvE6_JEENSt9enable_ifIX16is_invocable_r_vIT_T0_JDpT1_EEES4_E4typeEOS5_DpOS6_, symObjAddr: 0xA0F4, symBinAddr: 0x10000DFEC, symSize: 0x34 }
  - { offset: 0x1AB60, size: 0x8, addend: 0x0, symName: __ZNSt14_Function_base13_Base_managerIZN8Renderer11setupShapesEvEUlvE6_E14_M_get_pointerERKSt9_Any_data, symObjAddr: 0xA0D4, symBinAddr: 0x10000DFCC, symSize: 0x20 }
  - { offset: 0x1AB90, size: 0x8, addend: 0x0, symName: __ZNSt14_Function_base13_Base_managerIZN8Renderer11setupShapesEvEUlvE6_E9_M_createIS2_EEvRSt9_Any_dataOT_St17integral_constantIbLb0EE, symObjAddr: 0xA080, symBinAddr: 0x10000DF78, symSize: 0x54 }
  - { offset: 0x1ABDB, size: 0x8, addend: 0x0, symName: __ZNSt14_Function_base13_Base_managerIZN8Renderer11setupShapesEvEUlvE5_E10_M_managerERSt9_Any_dataRKS4_St18_Manager_operation, symObjAddr: 0x9F98, symBinAddr: 0x10000DE90, symSize: 0xC0 }
  - { offset: 0x1AC2F, size: 0x8, addend: 0x0, symName: __ZNSt9_Any_data9_M_accessIPZN8Renderer11setupShapesEvEUlvE5_EERT_v, symObjAddr: 0x9F7C, symBinAddr: 0x10000DE74, symSize: 0x1C }
  - { offset: 0x1AC5E, size: 0x8, addend: 0x0, symName: __ZSt10__invoke_rIvRZN8Renderer11setupShapesEvEUlvE5_JEENSt9enable_ifIX16is_invocable_r_vIT_T0_JDpT1_EEES4_E4typeEOS5_DpOS6_, symObjAddr: 0x9F48, symBinAddr: 0x10000DE40, symSize: 0x34 }
  - { offset: 0x1AC9F, size: 0x8, addend: 0x0, symName: __ZNSt14_Function_base13_Base_managerIZN8Renderer11setupShapesEvEUlvE5_E14_M_get_pointerERKSt9_Any_data, symObjAddr: 0x9F28, symBinAddr: 0x10000DE20, symSize: 0x20 }
  - { offset: 0x1ACCF, size: 0x8, addend: 0x0, symName: __ZNSt14_Function_base13_Base_managerIZN8Renderer11setupShapesEvEUlvE5_E9_M_createIS2_EEvRSt9_Any_dataOT_St17integral_constantIbLb0EE, symObjAddr: 0x9ED4, symBinAddr: 0x10000DDCC, symSize: 0x54 }
  - { offset: 0x1AD1A, size: 0x8, addend: 0x0, symName: __ZNSt14_Function_base13_Base_managerIZN8Renderer11setupShapesEvEUlvE4_E10_M_managerERSt9_Any_dataRKS4_St18_Manager_operation, symObjAddr: 0x9DEC, symBinAddr: 0x10000DCE4, symSize: 0xC0 }
  - { offset: 0x1AD6E, size: 0x8, addend: 0x0, symName: __ZNSt9_Any_data9_M_accessIPZN8Renderer11setupShapesEvEUlvE4_EERT_v, symObjAddr: 0x9DD0, symBinAddr: 0x10000DCC8, symSize: 0x1C }
  - { offset: 0x1AD9D, size: 0x8, addend: 0x0, symName: __ZSt10__invoke_rIvRZN8Renderer11setupShapesEvEUlvE4_JEENSt9enable_ifIX16is_invocable_r_vIT_T0_JDpT1_EEES4_E4typeEOS5_DpOS6_, symObjAddr: 0x9D9C, symBinAddr: 0x10000DC94, symSize: 0x34 }
  - { offset: 0x1ADDE, size: 0x8, addend: 0x0, symName: __ZNSt14_Function_base13_Base_managerIZN8Renderer11setupShapesEvEUlvE4_E14_M_get_pointerERKSt9_Any_data, symObjAddr: 0x9D7C, symBinAddr: 0x10000DC74, symSize: 0x20 }
  - { offset: 0x1AE0E, size: 0x8, addend: 0x0, symName: __ZNSt14_Function_base13_Base_managerIZN8Renderer11setupShapesEvEUlvE4_E9_M_createIS2_EEvRSt9_Any_dataOT_St17integral_constantIbLb0EE, symObjAddr: 0x9D28, symBinAddr: 0x10000DC20, symSize: 0x54 }
  - { offset: 0x1AE59, size: 0x8, addend: 0x0, symName: __ZNSt14_Function_base13_Base_managerIZN8Renderer11setupShapesEvEUlvE3_E10_M_managerERSt9_Any_dataRKS4_St18_Manager_operation, symObjAddr: 0x9C40, symBinAddr: 0x10000DB38, symSize: 0xC0 }
  - { offset: 0x1AEAD, size: 0x8, addend: 0x0, symName: __ZNSt9_Any_data9_M_accessIPZN8Renderer11setupShapesEvEUlvE3_EERT_v, symObjAddr: 0x9C24, symBinAddr: 0x10000DB1C, symSize: 0x1C }
  - { offset: 0x1AEDC, size: 0x8, addend: 0x0, symName: __ZSt10__invoke_rIvRZN8Renderer11setupShapesEvEUlvE3_JEENSt9enable_ifIX16is_invocable_r_vIT_T0_JDpT1_EEES4_E4typeEOS5_DpOS6_, symObjAddr: 0x9BF0, symBinAddr: 0x10000DAE8, symSize: 0x34 }
  - { offset: 0x1AF1D, size: 0x8, addend: 0x0, symName: __ZNSt14_Function_base13_Base_managerIZN8Renderer11setupShapesEvEUlvE3_E14_M_get_pointerERKSt9_Any_data, symObjAddr: 0x9BD0, symBinAddr: 0x10000DAC8, symSize: 0x20 }
  - { offset: 0x1AF4D, size: 0x8, addend: 0x0, symName: __ZNSt14_Function_base13_Base_managerIZN8Renderer11setupShapesEvEUlvE3_E9_M_createIS2_EEvRSt9_Any_dataOT_St17integral_constantIbLb0EE, symObjAddr: 0x9B7C, symBinAddr: 0x10000DA74, symSize: 0x54 }
  - { offset: 0x1AF98, size: 0x8, addend: 0x0, symName: __ZNSt14_Function_base13_Base_managerIZN8Renderer11setupShapesEvEUlvE2_E10_M_managerERSt9_Any_dataRKS4_St18_Manager_operation, symObjAddr: 0x9A94, symBinAddr: 0x10000D98C, symSize: 0xC0 }
  - { offset: 0x1AFEC, size: 0x8, addend: 0x0, symName: __ZNSt9_Any_data9_M_accessIPZN8Renderer11setupShapesEvEUlvE2_EERT_v, symObjAddr: 0x9A78, symBinAddr: 0x10000D970, symSize: 0x1C }
  - { offset: 0x1B01B, size: 0x8, addend: 0x0, symName: __ZSt10__invoke_rIvRZN8Renderer11setupShapesEvEUlvE2_JEENSt9enable_ifIX16is_invocable_r_vIT_T0_JDpT1_EEES4_E4typeEOS5_DpOS6_, symObjAddr: 0x9A44, symBinAddr: 0x10000D93C, symSize: 0x34 }
  - { offset: 0x1B05C, size: 0x8, addend: 0x0, symName: __ZNSt14_Function_base13_Base_managerIZN8Renderer11setupShapesEvEUlvE2_E14_M_get_pointerERKSt9_Any_data, symObjAddr: 0x9A24, symBinAddr: 0x10000D91C, symSize: 0x20 }
  - { offset: 0x1B08C, size: 0x8, addend: 0x0, symName: __ZNSt14_Function_base13_Base_managerIZN8Renderer11setupShapesEvEUlvE2_E9_M_createIS2_EEvRSt9_Any_dataOT_St17integral_constantIbLb0EE, symObjAddr: 0x99D0, symBinAddr: 0x10000D8C8, symSize: 0x54 }
  - { offset: 0x1B19A, size: 0x8, addend: 0x0, symName: __ZNSt14__shared_countILN9__gnu_cxx12_Lock_policyE2EEC1I5ShapeSaIvEJRSt6vectorIfSaIfEES9_EEERPT_St20_Sp_alloc_shared_tagIT0_EDpOT1_, symObjAddr: 0x986C, symBinAddr: 0x10000D764, symSize: 0x13C }
  - { offset: 0x1B2EB, size: 0x8, addend: 0x0, symName: __ZSt18uninitialized_copyIPKfPfET0_T_S4_S3_, symObjAddr: 0x9830, symBinAddr: 0x10000D728, symSize: 0x3C }
  - { offset: 0x1B366, size: 0x8, addend: 0x0, symName: __ZNSt6vectorIfSaIfEE11_S_max_sizeERKS0_, symObjAddr: 0x97DC, symBinAddr: 0x10000D6D4, symSize: 0x54 }
  - { offset: 0x1B440, size: 0x8, addend: 0x0, symName: __ZNSt14_Function_base13_Base_managerIZN8Renderer11setupShapesEvEUlvE1_E10_M_managerERSt9_Any_dataRKS4_St18_Manager_operation, symObjAddr: 0x971C, symBinAddr: 0x10000D614, symSize: 0xC0 }
  - { offset: 0x1B494, size: 0x8, addend: 0x0, symName: __ZNSt9_Any_data9_M_accessIPZN8Renderer11setupShapesEvEUlvE1_EERT_v, symObjAddr: 0x9700, symBinAddr: 0x10000D5F8, symSize: 0x1C }
  - { offset: 0x1B4C3, size: 0x8, addend: 0x0, symName: __ZSt10__invoke_rIvRZN8Renderer11setupShapesEvEUlvE1_JEENSt9enable_ifIX16is_invocable_r_vIT_T0_JDpT1_EEES4_E4typeEOS5_DpOS6_, symObjAddr: 0x96CC, symBinAddr: 0x10000D5C4, symSize: 0x34 }
  - { offset: 0x1B504, size: 0x8, addend: 0x0, symName: __ZNSt14_Function_base13_Base_managerIZN8Renderer11setupShapesEvEUlvE1_E14_M_get_pointerERKSt9_Any_data, symObjAddr: 0x96AC, symBinAddr: 0x10000D5A4, symSize: 0x20 }
  - { offset: 0x1B534, size: 0x8, addend: 0x0, symName: __ZNSt14_Function_base13_Base_managerIZN8Renderer11setupShapesEvEUlvE1_E9_M_createIS2_EEvRSt9_Any_dataOT_St17integral_constantIbLb0EE, symObjAddr: 0x9658, symBinAddr: 0x10000D550, symSize: 0x54 }
  - { offset: 0x1B57F, size: 0x8, addend: 0x0, symName: __ZNSt14_Function_base13_Base_managerIZN8Renderer11setupShapesEvEUlvE0_E10_M_managerERSt9_Any_dataRKS4_St18_Manager_operation, symObjAddr: 0x9570, symBinAddr: 0x10000D468, symSize: 0xC0 }
  - { offset: 0x1B5D3, size: 0x8, addend: 0x0, symName: __ZNSt9_Any_data9_M_accessIPZN8Renderer11setupShapesEvEUlvE0_EERT_v, symObjAddr: 0x9554, symBinAddr: 0x10000D44C, symSize: 0x1C }
  - { offset: 0x1B602, size: 0x8, addend: 0x0, symName: __ZSt10__invoke_rIvRZN8Renderer11setupShapesEvEUlvE0_JEENSt9enable_ifIX16is_invocable_r_vIT_T0_JDpT1_EEES4_E4typeEOS5_DpOS6_, symObjAddr: 0x9520, symBinAddr: 0x10000D418, symSize: 0x34 }
  - { offset: 0x1B643, size: 0x8, addend: 0x0, symName: __ZNSt14_Function_base13_Base_managerIZN8Renderer11setupShapesEvEUlvE0_E14_M_get_pointerERKSt9_Any_data, symObjAddr: 0x9500, symBinAddr: 0x10000D3F8, symSize: 0x20 }
  - { offset: 0x1B673, size: 0x8, addend: 0x0, symName: __ZNSt14_Function_base13_Base_managerIZN8Renderer11setupShapesEvEUlvE0_E9_M_createIS2_EEvRSt9_Any_dataOT_St17integral_constantIbLb0EE, symObjAddr: 0x94AC, symBinAddr: 0x10000D3A4, symSize: 0x54 }
  - { offset: 0x1B6C2, size: 0x8, addend: 0x0, symName: __ZNSt8_Rb_treeIiSt4pairIKiSt10shared_ptrI5ShapeEESt10_Select1stIS5_ESt4lessIiESaIS5_EE14_M_insert_nodeEPSt18_Rb_tree_node_baseSD_PSt13_Rb_tree_nodeIS5_E, symObjAddr: 0x93B4, symBinAddr: 0x10000D2AC, symSize: 0xD0 }
  - { offset: 0x1B72C, size: 0x8, addend: 0x0, symName: __ZNSt8_Rb_treeIiSt4pairIKiSt10shared_ptrI5ShapeEESt10_Select1stIS5_ESt4lessIiESaIS5_EE6_S_keyEPKSt13_Rb_tree_nodeIS5_E, symObjAddr: 0x938C, symBinAddr: 0x10000D284, symSize: 0x28 }
  - { offset: 0x1B75A, size: 0x8, addend: 0x0, symName: __ZNSt17_Rb_tree_iteratorISt4pairIKiSt10shared_ptrI5ShapeEEEppEv, symObjAddr: 0x935C, symBinAddr: 0x10000D254, symSize: 0x30 }
  - { offset: 0x1B784, size: 0x8, addend: 0x0, symName: __ZNSt17_Rb_tree_iteratorISt4pairIKiSt10shared_ptrI5ShapeEEEmmEv, symObjAddr: 0x932C, symBinAddr: 0x10000D224, symSize: 0x30 }
  - { offset: 0x1B7F6, size: 0x8, addend: 0x0, symName: __ZNSt4pairIPSt18_Rb_tree_node_baseS1_EC1IRS1_S4_Lb1EEEOT_OT0_, symObjAddr: 0x92E4, symBinAddr: 0x10000D1DC, symSize: 0x48 }
  - { offset: 0x1B840, size: 0x8, addend: 0x0, symName: __ZNSt8_Rb_treeIiSt4pairIKiSt10shared_ptrI5ShapeEESt10_Select1stIS5_ESt4lessIiESaIS5_EE11_M_leftmostEv, symObjAddr: 0x92CC, symBinAddr: 0x10000D1C4, symSize: 0x18 }
  - { offset: 0x1B86A, size: 0x8, addend: 0x0, symName: __ZNSt8_Rb_treeIiSt4pairIKiSt10shared_ptrI5ShapeEESt10_Select1stIS5_ESt4lessIiESaIS5_EE24_M_get_insert_unique_posERS1_, symObjAddr: 0x9174, symBinAddr: 0x10000D06C, symSize: 0x158 }
  - { offset: 0x1B936, size: 0x8, addend: 0x0, symName: __ZNSt4pairIPSt18_Rb_tree_node_baseS1_EC1IS1_S1_Lb1EEERKS1_S5_, symObjAddr: 0x9138, symBinAddr: 0x10000D030, symSize: 0x3C }
  - { offset: 0x1B980, size: 0x8, addend: 0x0, symName: __ZNSt8_Rb_treeIiSt4pairIKiSt10shared_ptrI5ShapeEESt10_Select1stIS5_ESt4lessIiESaIS5_EE12_M_rightmostEv, symObjAddr: 0x9120, symBinAddr: 0x10000D018, symSize: 0x18 }
  - { offset: 0x1B9AA, size: 0x8, addend: 0x0, symName: __ZNKSt8_Rb_treeIiSt4pairIKiSt10shared_ptrI5ShapeEESt10_Select1stIS5_ESt4lessIiESaIS5_EE4sizeEv, symObjAddr: 0x9108, symBinAddr: 0x10000D000, symSize: 0x18 }
  - { offset: 0x1B9D4, size: 0x8, addend: 0x0, symName: __ZNKSt23_Rb_tree_const_iteratorISt4pairIKiSt10shared_ptrI5ShapeEEE13_M_const_castEv, symObjAddr: 0x90E0, symBinAddr: 0x10000CFD8, symSize: 0x28 }
  - { offset: 0x1B9FE, size: 0x8, addend: 0x0, symName: __ZNSt8_Rb_treeIiSt4pairIKiSt10shared_ptrI5ShapeEESt10_Select1stIS5_ESt4lessIiESaIS5_EE14_M_create_nodeIJRKSt21piecewise_construct_tSt5tupleIJOiEESG_IJEEEEEPSt13_Rb_tree_nodeIS5_EDpOT_, symObjAddr: 0x9070, symBinAddr: 0x10000CF68, symSize: 0x70 }
  - { offset: 0x1BAA1, size: 0x8, addend: 0x0, symName: __ZNSt11_Tuple_implILm0EJOiEEC2IiEEOT_, symObjAddr: 0x9034, symBinAddr: 0x10000CF2C, symSize: 0x3C }
  - { offset: 0x1BAD9, size: 0x8, addend: 0x0, symName: __ZN9__gnu_cxx16__aligned_membufISt4pairIKiSt10shared_ptrI5ShapeEEE6_M_ptrEv, symObjAddr: 0x9018, symBinAddr: 0x10000CF10, symSize: 0x1C }
  - { offset: 0x1BAFF, size: 0x8, addend: 0x0, symName: __ZNSt14_Function_base13_Base_managerIZN8Renderer11setupShapesEvEUlvE_E10_M_managerERSt9_Any_dataRKS4_St18_Manager_operation, symObjAddr: 0x8F58, symBinAddr: 0x10000CE50, symSize: 0xC0 }
  - { offset: 0x1BB53, size: 0x8, addend: 0x0, symName: __ZNSt9_Any_data9_M_accessIPZN8Renderer11setupShapesEvEUlvE_EERT_v, symObjAddr: 0x8F3C, symBinAddr: 0x10000CE34, symSize: 0x1C }
  - { offset: 0x1BB8D, size: 0x8, addend: 0x0, symName: __ZNSt9_Any_data9_M_accessIPKSt9type_infoEERT_v, symObjAddr: 0x8F20, symBinAddr: 0x10000CE18, symSize: 0x1C }
  - { offset: 0x1BBBC, size: 0x8, addend: 0x0, symName: __ZSt10__invoke_rIvRZN8Renderer11setupShapesEvEUlvE_JEENSt9enable_ifIX16is_invocable_r_vIT_T0_JDpT1_EEES4_E4typeEOS5_DpOS6_, symObjAddr: 0x8EEC, symBinAddr: 0x10000CDE4, symSize: 0x34 }
  - { offset: 0x1BBFD, size: 0x8, addend: 0x0, symName: __ZNSt14_Function_base13_Base_managerIZN8Renderer11setupShapesEvEUlvE_E14_M_get_pointerERKSt9_Any_data, symObjAddr: 0x8ECC, symBinAddr: 0x10000CDC4, symSize: 0x20 }
  - { offset: 0x1BC2D, size: 0x8, addend: 0x0, symName: __ZNSt14_Function_base13_Base_managerIZN8Renderer11setupShapesEvEUlvE_E9_M_createIS2_EEvRSt9_Any_dataOT_St17integral_constantIbLb0EE, symObjAddr: 0x8E78, symBinAddr: 0x10000CD70, symSize: 0x54 }
  - { offset: 0x1BC7C, size: 0x8, addend: 0x0, symName: __ZNSt12__shared_ptrI5ShapeLN9__gnu_cxx12_Lock_policyE2EE31_M_enable_shared_from_this_withIS0_S0_EENSt9enable_ifIXntsrNS3_15__has_esft_baseIT0_vEE5valueEvE4typeEPT_, symObjAddr: 0x8E38, symBinAddr: 0x10000CD30, symSize: 0x18 }
  - { offset: 0x1BD83, size: 0x8, addend: 0x0, symName: __ZNSt14__shared_countILN9__gnu_cxx12_Lock_policyE2EEC1I5ShapeSaIvEJifN3glm3vecILi3EfLNS6_9qualifierE0EEEEEERPT_St20_Sp_alloc_shared_tagIT0_EDpOT1_, symObjAddr: 0x8CE8, symBinAddr: 0x10000CBE0, symSize: 0x150 }
  - { offset: 0x1BEE3, size: 0x8, addend: 0x0, symName: __ZSt4swapIP6ShaderENSt9enable_ifIXsrSt6__and_IJSt6__not_ISt15__is_tuple_likeIT_EESt21is_move_constructibleIS6_ESt18is_move_assignableIS6_EEE5valueEvE4typeERS6_SG_, symObjAddr: 0x8C94, symBinAddr: 0x10000CB8C, symSize: 0x54 }
  - { offset: 0x1BF3C, size: 0x8, addend: 0x0, symName: __ZSt4moveIRP6ShaderEONSt16remove_referenceIT_E4typeEOS4_, symObjAddr: 0x8C80, symBinAddr: 0x10000CB78, symSize: 0x14 }
  - { offset: 0x1BF72, size: 0x8, addend: 0x0, symName: __ZNSt14__shared_countILN9__gnu_cxx12_Lock_policyE2EE7_M_swapERS2_, symObjAddr: 0x8C40, symBinAddr: 0x10000CB38, symSize: 0x40 }
  - { offset: 0x1BFBE, size: 0x8, addend: 0x0, symName: __ZNSt12__shared_ptrI6ShaderLN9__gnu_cxx12_Lock_policyE2EE31_M_enable_shared_from_this_withIS0_S0_EENSt9enable_ifIXntsrNS3_15__has_esft_baseIT0_vEE5valueEvE4typeEPT_, symObjAddr: 0x8C28, symBinAddr: 0x10000CB20, symSize: 0x18 }
  - { offset: 0x1C0A5, size: 0x8, addend: 0x0, symName: __ZNSt14__shared_countILN9__gnu_cxx12_Lock_policyE2EEC1I6ShaderSaIvEJEEERPT_St20_Sp_alloc_shared_tagIT0_EDpOT1_, symObjAddr: 0x8B18, symBinAddr: 0x10000CA10, symSize: 0x110 }
  - { offset: 0x1C1DA, size: 0x8, addend: 0x0, symName: __ZNSt8_Rb_treeIiSt4pairIKiSt10shared_ptrI5ShapeEESt10_Select1stIS5_ESt4lessIiESaIS5_EE11_M_put_nodeEPSt13_Rb_tree_nodeIS5_E, symObjAddr: 0x8ACC, symBinAddr: 0x10000C9C4, symSize: 0x4C }
  - { offset: 0x1C24B, size: 0x8, addend: 0x0, symName: __ZNSt8_Rb_treeIiSt4pairIKiSt10shared_ptrI5ShapeEESt10_Select1stIS5_ESt4lessIiESaIS5_EE15_M_destroy_nodeEPSt13_Rb_tree_nodeIS5_E, symObjAddr: 0x8A6C, symBinAddr: 0x10000C964, symSize: 0x60 }
  - { offset: 0x1C2DC, size: 0x8, addend: 0x0, symName: __ZSt12__relocate_aIPfS0_SaIfEET0_T_S3_S2_RT1_, symObjAddr: 0x8A10, symBinAddr: 0x10000C908, symSize: 0x5C }
  - { offset: 0x1C358, size: 0x8, addend: 0x0, symName: __ZNK9__gnu_cxx17__normal_iteratorIPfSt6vectorIfSaIfEEE4baseEv, symObjAddr: 0x89FC, symBinAddr: 0x10000C8F4, symSize: 0x14 }
  - { offset: 0x1C382, size: 0x8, addend: 0x0, symName: __ZNKSt6vectorIfSaIfEE8max_sizeEv, symObjAddr: 0x89DC, symBinAddr: 0x10000C8D4, symSize: 0x20 }
  - { offset: 0x1C3AC, size: 0x8, addend: 0x0, symName: __ZNK9__gnu_cxx17__normal_iteratorIPfSt6vectorIfSaIfEEEdeEv, symObjAddr: 0x89C4, symBinAddr: 0x10000C8BC, symSize: 0x18 }
  - { offset: 0x1C3D6, size: 0x8, addend: 0x0, symName: __ZNK9__gnu_cxx17__normal_iteratorIPfSt6vectorIfSaIfEEEmiEl, symObjAddr: 0x8980, symBinAddr: 0x10000C878, symSize: 0x44 }
  - { offset: 0x1C44F, size: 0x8, addend: 0x0, symName: __ZNSt20__uninitialized_copyILb1EE13__uninit_copyIPfS2_EET0_T_S4_S3_, symObjAddr: 0x8954, symBinAddr: 0x10000C84C, symSize: 0x2C }
  - { offset: 0x1C4AA, size: 0x8, addend: 0x0, symName: __ZSt12__niter_wrapIPfET_RKS1_S1_, symObjAddr: 0x893C, symBinAddr: 0x10000C834, symSize: 0x18 }
  - { offset: 0x1C4E6, size: 0x8, addend: 0x0, symName: __ZSt14__copy_move_a1ILb0EPfS0_ET1_T0_S2_S1_, symObjAddr: 0x8910, symBinAddr: 0x10000C808, symSize: 0x2C }
  - { offset: 0x1C54E, size: 0x8, addend: 0x0, symName: __ZSt12__niter_baseIPfET_S1_, symObjAddr: 0x88FC, symBinAddr: 0x10000C7F4, symSize: 0x14 }
  - { offset: 0x1C581, size: 0x8, addend: 0x0, symName: __ZNSt12_Destroy_auxILb1EE9__destroyIN9__gnu_cxx17__normal_iteratorIPfSt6vectorIfSaIfEEEEEEvT_S9_, symObjAddr: 0x88E4, symBinAddr: 0x10000C7DC, symSize: 0x18 }
  - { offset: 0x1C5B5, size: 0x8, addend: 0x0, symName: __ZSt12__niter_wrapIN9__gnu_cxx17__normal_iteratorIPfSt6vectorIfSaIfEEEES2_ET_S7_T0_, symObjAddr: 0x889C, symBinAddr: 0x10000C794, symSize: 0x48 }
  - { offset: 0x1C602, size: 0x8, addend: 0x0, symName: __ZSt14__copy_move_a1ILb0EPKfPfET1_T0_S4_S3_, symObjAddr: 0x8870, symBinAddr: 0x10000C768, symSize: 0x2C }
  - { offset: 0x1C66A, size: 0x8, addend: 0x0, symName: __ZSt12__niter_baseIPfSt6vectorIfSaIfEEET_N9__gnu_cxx17__normal_iteratorIS4_T0_EE, symObjAddr: 0x8850, symBinAddr: 0x10000C748, symSize: 0x20 }
  - { offset: 0x1C6A6, size: 0x8, addend: 0x0, symName: __ZSt12__niter_baseIPKfSt6vectorIfSaIfEEET_N9__gnu_cxx17__normal_iteratorIS5_T0_EE, symObjAddr: 0x8830, symBinAddr: 0x10000C728, symSize: 0x20 }
  - { offset: 0x1C6E2, size: 0x8, addend: 0x0, symName: __ZSt18uninitialized_copyIN9__gnu_cxx17__normal_iteratorIPKfSt6vectorIfSaIfEEEEPfET0_T_SA_S9_, symObjAddr: 0x87F4, symBinAddr: 0x10000C6EC, symSize: 0x3C }
  - { offset: 0x1C785, size: 0x8, addend: 0x0, symName: __ZNSt15__new_allocatorIfE10deallocateEPfm, symObjAddr: 0x87C4, symBinAddr: 0x10000C6BC, symSize: 0x30 }
  - { offset: 0x1C7CB, size: 0x8, addend: 0x0, symName: __ZNSt12_Destroy_auxILb1EE9__destroyIPfEEvT_S3_, symObjAddr: 0x87AC, symBinAddr: 0x10000C6A4, symSize: 0x18 }
  - { offset: 0x1C833, size: 0x8, addend: 0x0, symName: __ZNKSt15__uniq_ptr_implI8RendererSt14default_deleteIS0_EE6_M_ptrEv, symObjAddr: 0x878C, symBinAddr: 0x10000C684, symSize: 0x20 }
  - { offset: 0x1C85D, size: 0x8, addend: 0x0, symName: __ZNKSt15__uniq_ptr_implI6WindowSt14default_deleteIS0_EE6_M_ptrEv, symObjAddr: 0x876C, symBinAddr: 0x10000C664, symSize: 0x20 }
  - { offset: 0x1C887, size: 0x8, addend: 0x0, symName: __ZNSt15__uniq_ptr_implI8RendererSt14default_deleteIS0_EE10_M_deleterEv, symObjAddr: 0x8750, symBinAddr: 0x10000C648, symSize: 0x1C }
  - { offset: 0x1C8B4, size: 0x8, addend: 0x0, symName: __ZSt3getILm0EJP8RendererSt14default_deleteIS0_EEERNSt13tuple_elementIXT_ESt5tupleIJDpT0_EEE4typeERS8_, symObjAddr: 0x8734, symBinAddr: 0x10000C62C, symSize: 0x1C }
  - { offset: 0x1C923, size: 0x8, addend: 0x0, symName: __ZNSt15__uniq_ptr_implI8RendererSt14default_deleteIS0_EEC2EPS0_, symObjAddr: 0x86F8, symBinAddr: 0x10000C5F0, symSize: 0x3C }
  - { offset: 0x1C952, size: 0x8, addend: 0x0, symName: __ZNSt15__uniq_ptr_implI6WindowSt14default_deleteIS0_EE10_M_deleterEv, symObjAddr: 0x86DC, symBinAddr: 0x10000C5D4, symSize: 0x1C }
  - { offset: 0x1C97F, size: 0x8, addend: 0x0, symName: __ZSt3getILm0EJP6WindowSt14default_deleteIS0_EEERNSt13tuple_elementIXT_ESt5tupleIJDpT0_EEE4typeERS8_, symObjAddr: 0x86C0, symBinAddr: 0x10000C5B8, symSize: 0x1C }
  - { offset: 0x1C9EE, size: 0x8, addend: 0x0, symName: __ZNSt15__uniq_ptr_implI6WindowSt14default_deleteIS0_EEC2EPS0_, symObjAddr: 0x8684, symBinAddr: 0x10000C57C, symSize: 0x3C }
  - { offset: 0x1CA70, size: 0x8, addend: 0x0, symName: __ZNSt8_Rb_treeIiSt4pairIKiSt10shared_ptrI5ShapeEESt10_Select1stIS5_ESt4lessIiESaIS5_EE10_Auto_nodeC1IJRKSt21piecewise_construct_tSt5tupleIJRS1_EESH_IJEEEEERSB_DpOT_, symObjAddr: 0x8608, symBinAddr: 0x10000C500, symSize: 0x7C }
  - { offset: 0x1CAD9, size: 0x8, addend: 0x0, symName: __ZSt7forwardISt5tupleIJRKiEEEOT_RNSt16remove_referenceIS4_E4typeE, symObjAddr: 0x85F4, symBinAddr: 0x10000C4EC, symSize: 0x14 }
  - { offset: 0x1CB37, size: 0x8, addend: 0x0, symName: __ZNSt11_Tuple_implILm0EJRKiEEC2ES1_, symObjAddr: 0x85CC, symBinAddr: 0x10000C4C4, symSize: 0x28 }
  - { offset: 0x1CB62, size: 0x8, addend: 0x0, symName: __ZNSt8_Rb_treeIiSt4pairIKiSt10shared_ptrI5ShapeEESt10_Select1stIS5_ESt4lessIiESaIS5_EE6_S_keyEPKSt18_Rb_tree_node_base, symObjAddr: 0x85B0, symBinAddr: 0x10000C4A8, symSize: 0x1C }
  - { offset: 0x1CB90, size: 0x8, addend: 0x0, symName: __ZNSt8_Rb_treeIiSt4pairIKiSt10shared_ptrI5ShapeEESt10_Select1stIS5_ESt4lessIiESaIS5_EE14_M_lower_boundEPSt13_Rb_tree_nodeIS5_EPSt18_Rb_tree_node_baseRS1_, symObjAddr: 0x8514, symBinAddr: 0x10000C40C, symSize: 0x9C }
  - { offset: 0x1CBED, size: 0x8, addend: 0x0, symName: __ZNSt8_Rb_treeIiSt4pairIKiSt10shared_ptrI5ShapeEESt10_Select1stIS5_ESt4lessIiESaIS5_EE6_M_endEv, symObjAddr: 0x84FC, symBinAddr: 0x10000C3F4, symSize: 0x18 }
  - { offset: 0x1CC13, size: 0x8, addend: 0x0, symName: __ZNSt17_Function_handlerIFvvEZN8Renderer11setupShapesEvEUlvE11_E10_M_managerERSt9_Any_dataRKS4_St18_Manager_operation, symObjAddr: 0x8474, symBinAddr: 0x10000C36C, symSize: 0x88 }
  - { offset: 0x1CC5F, size: 0x8, addend: 0x0, symName: __ZNSt17_Function_handlerIFvvEZN8Renderer11setupShapesEvEUlvE11_E9_M_invokeERKSt9_Any_data, symObjAddr: 0x8450, symBinAddr: 0x10000C348, symSize: 0x24 }
  - { offset: 0x1CC89, size: 0x8, addend: 0x0, symName: __ZNSt14_Function_base13_Base_managerIZN8Renderer11setupShapesEvEUlvE11_E15_M_init_functorIS2_EEvRSt9_Any_dataOT_, symObjAddr: 0x8414, symBinAddr: 0x10000C30C, symSize: 0x3C }
  - { offset: 0x1CCCB, size: 0x8, addend: 0x0, symName: __ZNSt14_Function_base13_Base_managerIZN8Renderer11setupShapesEvEUlvE11_E21_M_not_empty_functionIS2_EEbRKT_, symObjAddr: 0x8400, symBinAddr: 0x10000C2F8, symSize: 0x14 }
  - { offset: 0x1CCF6, size: 0x8, addend: 0x0, symName: __ZNSt17_Function_handlerIFvvEZN8Renderer11setupShapesEvEUlvE10_E10_M_managerERSt9_Any_dataRKS4_St18_Manager_operation, symObjAddr: 0x8378, symBinAddr: 0x10000C270, symSize: 0x88 }
  - { offset: 0x1CD42, size: 0x8, addend: 0x0, symName: __ZNSt17_Function_handlerIFvvEZN8Renderer11setupShapesEvEUlvE10_E9_M_invokeERKSt9_Any_data, symObjAddr: 0x8354, symBinAddr: 0x10000C24C, symSize: 0x24 }
  - { offset: 0x1CD6C, size: 0x8, addend: 0x0, symName: __ZNSt14_Function_base13_Base_managerIZN8Renderer11setupShapesEvEUlvE10_E15_M_init_functorIS2_EEvRSt9_Any_dataOT_, symObjAddr: 0x8318, symBinAddr: 0x10000C210, symSize: 0x3C }
  - { offset: 0x1CDAE, size: 0x8, addend: 0x0, symName: __ZNSt14_Function_base13_Base_managerIZN8Renderer11setupShapesEvEUlvE10_E21_M_not_empty_functionIS2_EEbRKT_, symObjAddr: 0x8304, symBinAddr: 0x10000C1FC, symSize: 0x14 }
  - { offset: 0x1CDD9, size: 0x8, addend: 0x0, symName: __ZNSt17_Function_handlerIFvvEZN8Renderer11setupShapesEvEUlvE9_E10_M_managerERSt9_Any_dataRKS4_St18_Manager_operation, symObjAddr: 0x827C, symBinAddr: 0x10000C174, symSize: 0x88 }
  - { offset: 0x1CE25, size: 0x8, addend: 0x0, symName: __ZNSt17_Function_handlerIFvvEZN8Renderer11setupShapesEvEUlvE9_E9_M_invokeERKSt9_Any_data, symObjAddr: 0x8258, symBinAddr: 0x10000C150, symSize: 0x24 }
  - { offset: 0x1CE4F, size: 0x8, addend: 0x0, symName: __ZNSt14_Function_base13_Base_managerIZN8Renderer11setupShapesEvEUlvE9_E15_M_init_functorIS2_EEvRSt9_Any_dataOT_, symObjAddr: 0x821C, symBinAddr: 0x10000C114, symSize: 0x3C }
  - { offset: 0x1CE91, size: 0x8, addend: 0x0, symName: __ZNSt14_Function_base13_Base_managerIZN8Renderer11setupShapesEvEUlvE9_E21_M_not_empty_functionIS2_EEbRKT_, symObjAddr: 0x8208, symBinAddr: 0x10000C100, symSize: 0x14 }
  - { offset: 0x1CEBC, size: 0x8, addend: 0x0, symName: __ZNSt17_Function_handlerIFvvEZN8Renderer11setupShapesEvEUlvE8_E10_M_managerERSt9_Any_dataRKS4_St18_Manager_operation, symObjAddr: 0x8180, symBinAddr: 0x10000C078, symSize: 0x88 }
  - { offset: 0x1CF08, size: 0x8, addend: 0x0, symName: __ZNSt17_Function_handlerIFvvEZN8Renderer11setupShapesEvEUlvE8_E9_M_invokeERKSt9_Any_data, symObjAddr: 0x815C, symBinAddr: 0x10000C054, symSize: 0x24 }
  - { offset: 0x1CF32, size: 0x8, addend: 0x0, symName: __ZNSt14_Function_base13_Base_managerIZN8Renderer11setupShapesEvEUlvE8_E15_M_init_functorIS2_EEvRSt9_Any_dataOT_, symObjAddr: 0x8120, symBinAddr: 0x10000C018, symSize: 0x3C }
  - { offset: 0x1CF74, size: 0x8, addend: 0x0, symName: __ZNSt14_Function_base13_Base_managerIZN8Renderer11setupShapesEvEUlvE8_E21_M_not_empty_functionIS2_EEbRKT_, symObjAddr: 0x810C, symBinAddr: 0x10000C004, symSize: 0x14 }
  - { offset: 0x1CF9F, size: 0x8, addend: 0x0, symName: __ZNSt17_Function_handlerIFvvEZN8Renderer11setupShapesEvEUlvE7_E10_M_managerERSt9_Any_dataRKS4_St18_Manager_operation, symObjAddr: 0x8084, symBinAddr: 0x10000BF7C, symSize: 0x88 }
  - { offset: 0x1CFEB, size: 0x8, addend: 0x0, symName: __ZNSt17_Function_handlerIFvvEZN8Renderer11setupShapesEvEUlvE7_E9_M_invokeERKSt9_Any_data, symObjAddr: 0x8060, symBinAddr: 0x10000BF58, symSize: 0x24 }
  - { offset: 0x1D015, size: 0x8, addend: 0x0, symName: __ZNSt14_Function_base13_Base_managerIZN8Renderer11setupShapesEvEUlvE7_E15_M_init_functorIS2_EEvRSt9_Any_dataOT_, symObjAddr: 0x8024, symBinAddr: 0x10000BF1C, symSize: 0x3C }
  - { offset: 0x1D057, size: 0x8, addend: 0x0, symName: __ZNSt14_Function_base13_Base_managerIZN8Renderer11setupShapesEvEUlvE7_E21_M_not_empty_functionIS2_EEbRKT_, symObjAddr: 0x8010, symBinAddr: 0x10000BF08, symSize: 0x14 }
  - { offset: 0x1D082, size: 0x8, addend: 0x0, symName: __ZNSt17_Function_handlerIFvvEZN8Renderer11setupShapesEvEUlvE6_E10_M_managerERSt9_Any_dataRKS4_St18_Manager_operation, symObjAddr: 0x7F88, symBinAddr: 0x10000BE80, symSize: 0x88 }
  - { offset: 0x1D0CE, size: 0x8, addend: 0x0, symName: __ZNSt17_Function_handlerIFvvEZN8Renderer11setupShapesEvEUlvE6_E9_M_invokeERKSt9_Any_data, symObjAddr: 0x7F64, symBinAddr: 0x10000BE5C, symSize: 0x24 }
  - { offset: 0x1D0F8, size: 0x8, addend: 0x0, symName: __ZNSt14_Function_base13_Base_managerIZN8Renderer11setupShapesEvEUlvE6_E15_M_init_functorIS2_EEvRSt9_Any_dataOT_, symObjAddr: 0x7F28, symBinAddr: 0x10000BE20, symSize: 0x3C }
  - { offset: 0x1D13A, size: 0x8, addend: 0x0, symName: __ZNSt14_Function_base13_Base_managerIZN8Renderer11setupShapesEvEUlvE6_E21_M_not_empty_functionIS2_EEbRKT_, symObjAddr: 0x7F14, symBinAddr: 0x10000BE0C, symSize: 0x14 }
  - { offset: 0x1D165, size: 0x8, addend: 0x0, symName: __ZNSt17_Function_handlerIFvvEZN8Renderer11setupShapesEvEUlvE5_E10_M_managerERSt9_Any_dataRKS4_St18_Manager_operation, symObjAddr: 0x7E8C, symBinAddr: 0x10000BD84, symSize: 0x88 }
  - { offset: 0x1D1B1, size: 0x8, addend: 0x0, symName: __ZNSt17_Function_handlerIFvvEZN8Renderer11setupShapesEvEUlvE5_E9_M_invokeERKSt9_Any_data, symObjAddr: 0x7E68, symBinAddr: 0x10000BD60, symSize: 0x24 }
  - { offset: 0x1D1DB, size: 0x8, addend: 0x0, symName: __ZNSt14_Function_base13_Base_managerIZN8Renderer11setupShapesEvEUlvE5_E15_M_init_functorIS2_EEvRSt9_Any_dataOT_, symObjAddr: 0x7E2C, symBinAddr: 0x10000BD24, symSize: 0x3C }
  - { offset: 0x1D21D, size: 0x8, addend: 0x0, symName: __ZNSt14_Function_base13_Base_managerIZN8Renderer11setupShapesEvEUlvE5_E21_M_not_empty_functionIS2_EEbRKT_, symObjAddr: 0x7E18, symBinAddr: 0x10000BD10, symSize: 0x14 }
  - { offset: 0x1D248, size: 0x8, addend: 0x0, symName: __ZNSt17_Function_handlerIFvvEZN8Renderer11setupShapesEvEUlvE4_E10_M_managerERSt9_Any_dataRKS4_St18_Manager_operation, symObjAddr: 0x7D90, symBinAddr: 0x10000BC88, symSize: 0x88 }
  - { offset: 0x1D294, size: 0x8, addend: 0x0, symName: __ZNSt17_Function_handlerIFvvEZN8Renderer11setupShapesEvEUlvE4_E9_M_invokeERKSt9_Any_data, symObjAddr: 0x7D6C, symBinAddr: 0x10000BC64, symSize: 0x24 }
  - { offset: 0x1D2BE, size: 0x8, addend: 0x0, symName: __ZNSt14_Function_base13_Base_managerIZN8Renderer11setupShapesEvEUlvE4_E15_M_init_functorIS2_EEvRSt9_Any_dataOT_, symObjAddr: 0x7D30, symBinAddr: 0x10000BC28, symSize: 0x3C }
  - { offset: 0x1D300, size: 0x8, addend: 0x0, symName: __ZNSt14_Function_base13_Base_managerIZN8Renderer11setupShapesEvEUlvE4_E21_M_not_empty_functionIS2_EEbRKT_, symObjAddr: 0x7D1C, symBinAddr: 0x10000BC14, symSize: 0x14 }
  - { offset: 0x1D32B, size: 0x8, addend: 0x0, symName: __ZNSt17_Function_handlerIFvvEZN8Renderer11setupShapesEvEUlvE3_E10_M_managerERSt9_Any_dataRKS4_St18_Manager_operation, symObjAddr: 0x7C94, symBinAddr: 0x10000BB8C, symSize: 0x88 }
  - { offset: 0x1D377, size: 0x8, addend: 0x0, symName: __ZNSt17_Function_handlerIFvvEZN8Renderer11setupShapesEvEUlvE3_E9_M_invokeERKSt9_Any_data, symObjAddr: 0x7C70, symBinAddr: 0x10000BB68, symSize: 0x24 }
  - { offset: 0x1D3A1, size: 0x8, addend: 0x0, symName: __ZNSt14_Function_base13_Base_managerIZN8Renderer11setupShapesEvEUlvE3_E15_M_init_functorIS2_EEvRSt9_Any_dataOT_, symObjAddr: 0x7C34, symBinAddr: 0x10000BB2C, symSize: 0x3C }
  - { offset: 0x1D3E3, size: 0x8, addend: 0x0, symName: __ZNSt14_Function_base13_Base_managerIZN8Renderer11setupShapesEvEUlvE3_E21_M_not_empty_functionIS2_EEbRKT_, symObjAddr: 0x7C20, symBinAddr: 0x10000BB18, symSize: 0x14 }
  - { offset: 0x1D40E, size: 0x8, addend: 0x0, symName: __ZNSt17_Function_handlerIFvvEZN8Renderer11setupShapesEvEUlvE2_E10_M_managerERSt9_Any_dataRKS4_St18_Manager_operation, symObjAddr: 0x7B98, symBinAddr: 0x10000BA90, symSize: 0x88 }
  - { offset: 0x1D45A, size: 0x8, addend: 0x0, symName: __ZNSt17_Function_handlerIFvvEZN8Renderer11setupShapesEvEUlvE2_E9_M_invokeERKSt9_Any_data, symObjAddr: 0x7B74, symBinAddr: 0x10000BA6C, symSize: 0x24 }
  - { offset: 0x1D484, size: 0x8, addend: 0x0, symName: __ZNSt14_Function_base13_Base_managerIZN8Renderer11setupShapesEvEUlvE2_E15_M_init_functorIS2_EEvRSt9_Any_dataOT_, symObjAddr: 0x7B38, symBinAddr: 0x10000BA30, symSize: 0x3C }
  - { offset: 0x1D4C6, size: 0x8, addend: 0x0, symName: __ZNSt14_Function_base13_Base_managerIZN8Renderer11setupShapesEvEUlvE2_E21_M_not_empty_functionIS2_EEbRKT_, symObjAddr: 0x7B24, symBinAddr: 0x10000BA1C, symSize: 0x14 }
  - { offset: 0x1D547, size: 0x8, addend: 0x0, symName: __ZNSt12__shared_ptrI5ShapeLN9__gnu_cxx12_Lock_policyE2EEC2ISaIvEJRSt6vectorIfSaIfEES9_EEESt20_Sp_alloc_shared_tagIT_EDpOT0_, symObjAddr: 0x7A9C, symBinAddr: 0x10000B994, symSize: 0x88 }
  - { offset: 0x1D5A4, size: 0x8, addend: 0x0, symName: __ZSt22__uninitialized_copy_aIPKfPffET0_T_S4_S3_RSaIT1_E, symObjAddr: 0x7A6C, symBinAddr: 0x10000B964, symSize: 0x30 }
  - { offset: 0x1D614, size: 0x8, addend: 0x0, symName: __ZNSt6vectorIfSaIfEE17_S_check_init_lenEmRKS0_, symObjAddr: 0x79E8, symBinAddr: 0x10000B8E0, symSize: 0x84 }
  - { offset: 0x1D710, size: 0x8, addend: 0x0, symName: __ZNKSt16initializer_listIfE4sizeEv, symObjAddr: 0x79D0, symBinAddr: 0x10000B8C8, symSize: 0x18 }
  - { offset: 0x1D761, size: 0x8, addend: 0x0, symName: __ZNSt12_Vector_baseIfSaIfEE12_Vector_implC1ERKS0_, symObjAddr: 0x7984, symBinAddr: 0x10000B87C, symSize: 0x4C }
  - { offset: 0x1D7E4, size: 0x8, addend: 0x0, symName: __ZNSt17_Function_handlerIFvvEZN8Renderer11setupShapesEvEUlvE1_E10_M_managerERSt9_Any_dataRKS4_St18_Manager_operation, symObjAddr: 0x78FC, symBinAddr: 0x10000B7F4, symSize: 0x88 }
  - { offset: 0x1D830, size: 0x8, addend: 0x0, symName: __ZNSt17_Function_handlerIFvvEZN8Renderer11setupShapesEvEUlvE1_E9_M_invokeERKSt9_Any_data, symObjAddr: 0x78D8, symBinAddr: 0x10000B7D0, symSize: 0x24 }
  - { offset: 0x1D85A, size: 0x8, addend: 0x0, symName: __ZNSt14_Function_base13_Base_managerIZN8Renderer11setupShapesEvEUlvE1_E15_M_init_functorIS2_EEvRSt9_Any_dataOT_, symObjAddr: 0x789C, symBinAddr: 0x10000B794, symSize: 0x3C }
  - { offset: 0x1D89C, size: 0x8, addend: 0x0, symName: __ZNSt14_Function_base13_Base_managerIZN8Renderer11setupShapesEvEUlvE1_E21_M_not_empty_functionIS2_EEbRKT_, symObjAddr: 0x7888, symBinAddr: 0x10000B780, symSize: 0x14 }
  - { offset: 0x1D8C7, size: 0x8, addend: 0x0, symName: __ZNSt17_Function_handlerIFvvEZN8Renderer11setupShapesEvEUlvE0_E10_M_managerERSt9_Any_dataRKS4_St18_Manager_operation, symObjAddr: 0x7800, symBinAddr: 0x10000B6F8, symSize: 0x88 }
  - { offset: 0x1D913, size: 0x8, addend: 0x0, symName: __ZNSt17_Function_handlerIFvvEZN8Renderer11setupShapesEvEUlvE0_E9_M_invokeERKSt9_Any_data, symObjAddr: 0x77DC, symBinAddr: 0x10000B6D4, symSize: 0x24 }
  - { offset: 0x1D93D, size: 0x8, addend: 0x0, symName: __ZNSt14_Function_base13_Base_managerIZN8Renderer11setupShapesEvEUlvE0_E15_M_init_functorIS2_EEvRSt9_Any_dataOT_, symObjAddr: 0x77A0, symBinAddr: 0x10000B698, symSize: 0x3C }
  - { offset: 0x1D97F, size: 0x8, addend: 0x0, symName: __ZNSt14_Function_base13_Base_managerIZN8Renderer11setupShapesEvEUlvE0_E21_M_not_empty_functionIS2_EEbRKT_, symObjAddr: 0x778C, symBinAddr: 0x10000B684, symSize: 0x14 }
  - { offset: 0x1D9D6, size: 0x8, addend: 0x0, symName: __ZNSt17_Rb_tree_iteratorISt4pairIKiSt10shared_ptrI5ShapeEEEC1EPSt18_Rb_tree_node_base, symObjAddr: 0x7768, symBinAddr: 0x10000B660, symSize: 0x24 }
  - { offset: 0x1DA05, size: 0x8, addend: 0x0, symName: __ZNSt8_Rb_treeIiSt4pairIKiSt10shared_ptrI5ShapeEESt10_Select1stIS5_ESt4lessIiESaIS5_EE10_Auto_node9_M_insertES0_IPSt18_Rb_tree_node_baseSE_E, symObjAddr: 0x771C, symBinAddr: 0x10000B614, symSize: 0x4C }
  - { offset: 0x1DA51, size: 0x8, addend: 0x0, symName: __ZNKSt8_Rb_treeIiSt4pairIKiSt10shared_ptrI5ShapeEESt10_Select1stIS5_ESt4lessIiESaIS5_EE10_Auto_node6_M_keyEv, symObjAddr: 0x76FC, symBinAddr: 0x10000B5F4, symSize: 0x20 }
  - { offset: 0x1DA7B, size: 0x8, addend: 0x0, symName: __ZNSt8_Rb_treeIiSt4pairIKiSt10shared_ptrI5ShapeEESt10_Select1stIS5_ESt4lessIiESaIS5_EE29_M_get_insert_hint_unique_posESt23_Rb_tree_const_iteratorIS5_ERS1_, symObjAddr: 0x73D8, symBinAddr: 0x10000B2D0, symSize: 0x324 }
  - { offset: 0x1DB4A, size: 0x8, addend: 0x0, symName: __ZNSt8_Rb_treeIiSt4pairIKiSt10shared_ptrI5ShapeEESt10_Select1stIS5_ESt4lessIiESaIS5_EE10_Auto_nodeD1Ev, symObjAddr: 0x7394, symBinAddr: 0x10000B28C, symSize: 0x44 }
  - { offset: 0x1DBC3, size: 0x8, addend: 0x0, symName: __ZNSt8_Rb_treeIiSt4pairIKiSt10shared_ptrI5ShapeEESt10_Select1stIS5_ESt4lessIiESaIS5_EE10_Auto_nodeC1IJRKSt21piecewise_construct_tSt5tupleIJOiEESH_IJEEEEERSB_DpOT_, symObjAddr: 0x7318, symBinAddr: 0x10000B210, symSize: 0x7C }
  - { offset: 0x1DC2C, size: 0x8, addend: 0x0, symName: __ZSt7forwardISt5tupleIJEEEOT_RNSt16remove_referenceIS2_E4typeE, symObjAddr: 0x7304, symBinAddr: 0x10000B1FC, symSize: 0x14 }
  - { offset: 0x1DC65, size: 0x8, addend: 0x0, symName: __ZSt7forwardISt5tupleIJOiEEEOT_RNSt16remove_referenceIS3_E4typeE, symObjAddr: 0x72F0, symBinAddr: 0x10000B1E8, symSize: 0x14 }
  - { offset: 0x1DC9E, size: 0x8, addend: 0x0, symName: __ZSt7forwardIRKSt21piecewise_construct_tEOT_RNSt16remove_referenceIS3_E4typeE, symObjAddr: 0x72DC, symBinAddr: 0x10000B1D4, symSize: 0x14 }
  - { offset: 0x1DD0F, size: 0x8, addend: 0x0, symName: __ZNSt5tupleIJOiEEC1IJiELb1ELb1EEEDpOT_, symObjAddr: 0x72A0, symBinAddr: 0x10000B198, symSize: 0x3C }
  - { offset: 0x1DD5A, size: 0x8, addend: 0x0, symName: __ZNSt13_Rb_tree_nodeISt4pairIKiSt10shared_ptrI5ShapeEEE9_M_valptrEv, symObjAddr: 0x7280, symBinAddr: 0x10000B178, symSize: 0x20 }
  - { offset: 0x1DD84, size: 0x8, addend: 0x0, symName: __ZNKSt8_Rb_treeIiSt4pairIKiSt10shared_ptrI5ShapeEESt10_Select1stIS5_ESt4lessIiESaIS5_EE8key_compEv, symObjAddr: 0x7268, symBinAddr: 0x10000B160, symSize: 0x18 }
  - { offset: 0x1DDAE, size: 0x8, addend: 0x0, symName: __ZNSt8_Rb_treeIiSt4pairIKiSt10shared_ptrI5ShapeEESt10_Select1stIS5_ESt4lessIiESaIS5_EE11lower_boundERS1_, symObjAddr: 0x7220, symBinAddr: 0x10000B118, symSize: 0x48 }
  - { offset: 0x1DDE5, size: 0x8, addend: 0x0, symName: __ZSt4swapIPFvRKSt9_Any_dataEENSt9enable_ifIXsrSt6__and_IJSt6__not_ISt15__is_tuple_likeIT_EESt21is_move_constructibleIS9_ESt18is_move_assignableIS9_EEE5valueEvE4typeERS9_SJ_, symObjAddr: 0x71CC, symBinAddr: 0x10000B0C4, symSize: 0x54 }
  - { offset: 0x1DE3E, size: 0x8, addend: 0x0, symName: __ZSt4moveIRPFvRKSt9_Any_dataEEONSt16remove_referenceIT_E4typeEOS7_, symObjAddr: 0x71B8, symBinAddr: 0x10000B0B0, symSize: 0x14 }
  - { offset: 0x1DE70, size: 0x8, addend: 0x0, symName: __ZSt4swapIPFbRSt9_Any_dataRKS0_St18_Manager_operationEENSt9enable_ifIXsrSt6__and_IJSt6__not_ISt15__is_tuple_likeIT_EESt21is_move_constructibleISB_ESt18is_move_assignableISB_EEE5valueEvE4typeERSB_SL_, symObjAddr: 0x7164, symBinAddr: 0x10000B05C, symSize: 0x54 }
  - { offset: 0x1DEC9, size: 0x8, addend: 0x0, symName: __ZSt4moveIRPFbRSt9_Any_dataRKS0_St18_Manager_operationEEONSt16remove_referenceIT_E4typeEOS9_, symObjAddr: 0x7150, symBinAddr: 0x10000B048, symSize: 0x14 }
  - { offset: 0x1DEFB, size: 0x8, addend: 0x0, symName: __ZSt4swapISt9_Any_dataENSt9enable_ifIXsrSt6__and_IJSt6__not_ISt15__is_tuple_likeIT_EESt21is_move_constructibleIS5_ESt18is_move_assignableIS5_EEE5valueEvE4typeERS5_SF_, symObjAddr: 0x70FC, symBinAddr: 0x10000AFF4, symSize: 0x54 }
  - { offset: 0x1DF54, size: 0x8, addend: 0x0, symName: __ZSt4moveIRSt9_Any_dataEONSt16remove_referenceIT_E4typeEOS3_, symObjAddr: 0x70E8, symBinAddr: 0x10000AFE0, symSize: 0x14 }
  - { offset: 0x1DF86, size: 0x8, addend: 0x0, symName: __ZNSt17_Function_handlerIFvvEZN8Renderer11setupShapesEvEUlvE_E10_M_managerERSt9_Any_dataRKS4_St18_Manager_operation, symObjAddr: 0x7060, symBinAddr: 0x10000AF58, symSize: 0x88 }
  - { offset: 0x1DFD2, size: 0x8, addend: 0x0, symName: __ZNSt17_Function_handlerIFvvEZN8Renderer11setupShapesEvEUlvE_E9_M_invokeERKSt9_Any_data, symObjAddr: 0x703C, symBinAddr: 0x10000AF34, symSize: 0x24 }
  - { offset: 0x1DFFC, size: 0x8, addend: 0x0, symName: __ZNSt14_Function_base13_Base_managerIZN8Renderer11setupShapesEvEUlvE_E15_M_init_functorIS2_EEvRSt9_Any_dataOT_, symObjAddr: 0x7000, symBinAddr: 0x10000AEF8, symSize: 0x3C }
  - { offset: 0x1E03E, size: 0x8, addend: 0x0, symName: __ZNSt14_Function_base13_Base_managerIZN8Renderer11setupShapesEvEUlvE_E21_M_not_empty_functionIS2_EEbRKT_, symObjAddr: 0x6FEC, symBinAddr: 0x10000AEE4, symSize: 0x14 }
  - { offset: 0x1E06D, size: 0x8, addend: 0x0, symName: __ZNKSt12__shared_ptrI5ShapeLN9__gnu_cxx12_Lock_policyE2EE3getEv, symObjAddr: 0x6FD4, symBinAddr: 0x10000AECC, symSize: 0x18 }
  - { offset: 0x1E0F3, size: 0x8, addend: 0x0, symName: __ZNSt12__shared_ptrI5ShapeLN9__gnu_cxx12_Lock_policyE2EEC2ISaIvEJifN3glm3vecILi3EfLNS6_9qualifierE0EEEEEESt20_Sp_alloc_shared_tagIT_EDpOT0_, symObjAddr: 0x6F38, symBinAddr: 0x10000AE30, symSize: 0x9C }
  - { offset: 0x1E162, size: 0x8, addend: 0x0, symName: __ZNKSt12__shared_ptrI6ShaderLN9__gnu_cxx12_Lock_policyE2EE3getEv, symObjAddr: 0x6F20, symBinAddr: 0x10000AE18, symSize: 0x18 }
  - { offset: 0x1E18C, size: 0x8, addend: 0x0, symName: __ZNSt12__shared_ptrI6ShaderLN9__gnu_cxx12_Lock_policyE2EE4swapERS3_, symObjAddr: 0x6EDC, symBinAddr: 0x10000ADD4, symSize: 0x44 }
  - { offset: 0x1E1EF, size: 0x8, addend: 0x0, symName: __ZNSt12__shared_ptrI6ShaderLN9__gnu_cxx12_Lock_policyE2EEC1EOS3_, symObjAddr: 0x6E80, symBinAddr: 0x10000AD78, symSize: 0x5C }
  - { offset: 0x1E221, size: 0x8, addend: 0x0, symName: __ZSt4moveIRSt12__shared_ptrI6ShaderLN9__gnu_cxx12_Lock_policyE2EEEONSt16remove_referenceIT_E4typeEOS7_, symObjAddr: 0x6E6C, symBinAddr: 0x10000AD64, symSize: 0x14 }
  - { offset: 0x1E293, size: 0x8, addend: 0x0, symName: __ZNSt12__shared_ptrI6ShaderLN9__gnu_cxx12_Lock_policyE2EEC2ISaIvEJEEESt20_Sp_alloc_shared_tagIT_EDpOT0_, symObjAddr: 0x6E20, symBinAddr: 0x10000AD18, symSize: 0x4C }
  - { offset: 0x1E2D6, size: 0x8, addend: 0x0, symName: __ZNKSt8_Rb_treeIiSt4pairIKiSt10shared_ptrI5ShapeEESt10_Select1stIS5_ESt4lessIiESaIS5_EE9_M_mbeginEv, symObjAddr: 0x6E08, symBinAddr: 0x10000AD00, symSize: 0x18 }
  - { offset: 0x1E300, size: 0x8, addend: 0x0, symName: __ZNSt8_Rb_treeIiSt4pairIKiSt10shared_ptrI5ShapeEESt10_Select1stIS5_ESt4lessIiESaIS5_EE12_M_drop_nodeEPSt13_Rb_tree_nodeIS5_E, symObjAddr: 0x6DD4, symBinAddr: 0x10000ACCC, symSize: 0x34 }
  - { offset: 0x1E337, size: 0x8, addend: 0x0, symName: __ZNSt8_Rb_treeIiSt4pairIKiSt10shared_ptrI5ShapeEESt10_Select1stIS5_ESt4lessIiESaIS5_EE7_S_leftEPSt18_Rb_tree_node_base, symObjAddr: 0x6DBC, symBinAddr: 0x10000ACB4, symSize: 0x18 }
  - { offset: 0x1E361, size: 0x8, addend: 0x0, symName: __ZNSt8_Rb_treeIiSt4pairIKiSt10shared_ptrI5ShapeEESt10_Select1stIS5_ESt4lessIiESaIS5_EE8_S_rightEPSt18_Rb_tree_node_base, symObjAddr: 0x6DA4, symBinAddr: 0x10000AC9C, symSize: 0x18 }
  - { offset: 0x1E3BF, size: 0x8, addend: 0x0, symName: __ZNSt14__shared_countILN9__gnu_cxx12_Lock_policyE2EEC1Ev, symObjAddr: 0x6D88, symBinAddr: 0x10000AC80, symSize: 0x1C }
  - { offset: 0x1E3E1, size: 0x8, addend: 0x0, symName: __ZNSt6vectorIfSaIfEE11_S_relocateEPfS2_S2_RS0_, symObjAddr: 0x6D54, symBinAddr: 0x10000AC4C, symSize: 0x34 }
  - { offset: 0x1E43E, size: 0x8, addend: 0x0, symName: __ZSt12__to_addressIfEPT_S1_, symObjAddr: 0x6D40, symBinAddr: 0x10000AC38, symSize: 0x14 }
  - { offset: 0x1E477, size: 0x8, addend: 0x0, symName: __ZN9__gnu_cxxmiIPfSt6vectorIfSaIfEEEENS_17__normal_iteratorIT_T0_E15difference_typeERKS8_SB_, symObjAddr: 0x6D00, symBinAddr: 0x10000ABF8, symSize: 0x40 }
  - { offset: 0x1E4C8, size: 0x8, addend: 0x0, symName: __ZNKSt6vectorIfSaIfEE12_M_check_lenEmPKc, symObjAddr: 0x6C30, symBinAddr: 0x10000AB28, symSize: 0xD0 }
  - { offset: 0x1E56A, size: 0x8, addend: 0x0, symName: __ZSt7forwardIRKfEOT_RNSt16remove_referenceIS2_E4typeE, symObjAddr: 0x6C1C, symBinAddr: 0x10000AB14, symSize: 0x14 }
  - { offset: 0x1E5A0, size: 0x8, addend: 0x0, symName: __ZNSt6vectorIfSaIfEE4backEv, symObjAddr: 0x6BE4, symBinAddr: 0x10000AADC, symSize: 0x38 }
  - { offset: 0x1E5CA, size: 0x8, addend: 0x0, symName: __ZNSt6vectorIfSaIfEE17_M_realloc_appendIJfEEEvDpOT_, symObjAddr: 0x6A28, symBinAddr: 0x10000A920, symSize: 0x1BC }
  - { offset: 0x1E74F, size: 0x8, addend: 0x0, symName: __ZZNSt6vectorIfSaIfEE17_M_realloc_appendIJfEEEvDpOT_EN6_GuardC1EPfmRS0_, symObjAddr: 0x6984, symBinAddr: 0x10000A87C, symSize: 0x44 }
  - { offset: 0x1E794, size: 0x8, addend: 0x0, symName: __ZZNSt6vectorIfSaIfEE17_M_realloc_appendIJfEEEvDpOT_EN6_GuardD1Ev, symObjAddr: 0x69C8, symBinAddr: 0x10000A8C0, symSize: 0x60 }
  - { offset: 0x1E8C7, size: 0x8, addend: 0x0, symName: __ZSt18uninitialized_copyIPfS0_ET0_T_S2_S1_, symObjAddr: 0x6948, symBinAddr: 0x10000A840, symSize: 0x3C }
  - { offset: 0x1E942, size: 0x8, addend: 0x0, symName: __ZSt13__copy_move_aILb0EPfS0_ET1_T0_S2_S1_, symObjAddr: 0x68E8, symBinAddr: 0x10000A7E0, symSize: 0x60 }
  - { offset: 0x1E9AA, size: 0x8, addend: 0x0, symName: __ZSt12__miter_baseIPfET_S1_, symObjAddr: 0x68D4, symBinAddr: 0x10000A7CC, symSize: 0x14 }
  - { offset: 0x1E9DD, size: 0x8, addend: 0x0, symName: __ZSt8_DestroyIN9__gnu_cxx17__normal_iteratorIPfSt6vectorIfSaIfEEEEEvT_S7_, symObjAddr: 0x68AC, symBinAddr: 0x10000A7A4, symSize: 0x28 }
  - { offset: 0x1EA1F, size: 0x8, addend: 0x0, symName: __ZSt13__copy_move_aILb0EN9__gnu_cxx17__normal_iteratorIPKfSt6vectorIfSaIfEEEENS1_IPfS6_EEET1_T0_SB_SA_, symObjAddr: 0x684C, symBinAddr: 0x10000A744, symSize: 0x60 }
  - { offset: 0x1EA87, size: 0x8, addend: 0x0, symName: __ZSt12__miter_baseIN9__gnu_cxx17__normal_iteratorIPKfSt6vectorIfSaIfEEEEET_S8_, symObjAddr: 0x6838, symBinAddr: 0x10000A730, symSize: 0x14 }
  - { offset: 0x1EAE6, size: 0x8, addend: 0x0, symName: __ZN9__gnu_cxx17__normal_iteratorIPfSt6vectorIfSaIfEEEC1ERKS1_, symObjAddr: 0x6810, symBinAddr: 0x10000A708, symSize: 0x28 }
  - { offset: 0x1EB11, size: 0x8, addend: 0x0, symName: __ZSt22__uninitialized_copy_aIN9__gnu_cxx17__normal_iteratorIPKfSt6vectorIfSaIfEEEEPffET0_T_SA_S9_RSaIT1_E, symObjAddr: 0x67E0, symBinAddr: 0x10000A6D8, symSize: 0x30 }
  - { offset: 0x1EB85, size: 0x8, addend: 0x0, symName: __ZNSt12_Vector_baseIfSaIfEE11_M_allocateEm, symObjAddr: 0x6790, symBinAddr: 0x10000A688, symSize: 0x50 }
  - { offset: 0x1EC15, size: 0x8, addend: 0x0, symName: __ZN9__gnu_cxx17__normal_iteratorIPKfSt6vectorIfSaIfEEEC1ERKS2_, symObjAddr: 0x6768, symBinAddr: 0x10000A660, symSize: 0x28 }
  - { offset: 0x1EC72, size: 0x8, addend: 0x0, symName: __ZSt8_DestroyIPfEvT_S1_, symObjAddr: 0x6740, symBinAddr: 0x10000A638, symSize: 0x28 }
  - { offset: 0x1ECE3, size: 0x8, addend: 0x0, symName: __ZNKSt10unique_ptrI8RendererSt14default_deleteIS0_EE3getEv, symObjAddr: 0x6724, symBinAddr: 0x10000A61C, symSize: 0x1C }
  - { offset: 0x1ED0D, size: 0x8, addend: 0x0, symName: __ZNKSt10unique_ptrI6WindowSt14default_deleteIS0_EE3getEv, symObjAddr: 0x6708, symBinAddr: 0x10000A600, symSize: 0x1C }
  - { offset: 0x1ED37, size: 0x8, addend: 0x0, symName: __ZNKSt14default_deleteI8RendererEclEPS0_, symObjAddr: 0x66C4, symBinAddr: 0x10000A5BC, symSize: 0x44 }
  - { offset: 0x1ED98, size: 0x8, addend: 0x0, symName: __ZN8RendererD1Ev, symObjAddr: 0x6698, symBinAddr: 0x10000A590, symSize: 0x2C }
  - { offset: 0x1EDC1, size: 0x8, addend: 0x0, symName: __ZSt4moveIRP8RendererEONSt16remove_referenceIT_E4typeEOS4_, symObjAddr: 0x6684, symBinAddr: 0x10000A57C, symSize: 0x14 }
  - { offset: 0x1EDF7, size: 0x8, addend: 0x0, symName: __ZNSt10unique_ptrI8RendererSt14default_deleteIS0_EE11get_deleterEv, symObjAddr: 0x6668, symBinAddr: 0x10000A560, symSize: 0x1C }
  - { offset: 0x1EE21, size: 0x8, addend: 0x0, symName: __ZNSt15__uniq_ptr_implI8RendererSt14default_deleteIS0_EE6_M_ptrEv, symObjAddr: 0x664C, symBinAddr: 0x10000A544, symSize: 0x1C }
  - { offset: 0x1EE7C, size: 0x8, addend: 0x0, symName: __ZNSt10unique_ptrI8RendererSt14default_deleteIS0_EEC1IS2_vEEPS0_, symObjAddr: 0x6624, symBinAddr: 0x10000A51C, symSize: 0x28 }
  - { offset: 0x1EED6, size: 0x8, addend: 0x0, symName: __ZNSt15__uniq_ptr_dataI8RendererSt14default_deleteIS0_ELb1ELb1EECI1St15__uniq_ptr_implIS0_S2_EEPS0_, symObjAddr: 0x65FC, symBinAddr: 0x10000A4F4, symSize: 0x28 }
  - { offset: 0x1EF05, size: 0x8, addend: 0x0, symName: __ZNKSt14default_deleteI6WindowEclEPS0_, symObjAddr: 0x65B8, symBinAddr: 0x10000A4B0, symSize: 0x44 }
  - { offset: 0x1EF42, size: 0x8, addend: 0x0, symName: __ZSt4moveIRP6WindowEONSt16remove_referenceIT_E4typeEOS4_, symObjAddr: 0x65A4, symBinAddr: 0x10000A49C, symSize: 0x14 }
  - { offset: 0x1EF78, size: 0x8, addend: 0x0, symName: __ZNSt10unique_ptrI6WindowSt14default_deleteIS0_EE11get_deleterEv, symObjAddr: 0x6588, symBinAddr: 0x10000A480, symSize: 0x1C }
  - { offset: 0x1EFA2, size: 0x8, addend: 0x0, symName: __ZNSt15__uniq_ptr_implI6WindowSt14default_deleteIS0_EE6_M_ptrEv, symObjAddr: 0x656C, symBinAddr: 0x10000A464, symSize: 0x1C }
  - { offset: 0x1EFFD, size: 0x8, addend: 0x0, symName: __ZNSt10unique_ptrI6WindowSt14default_deleteIS0_EEC1IS2_vEEPS0_, symObjAddr: 0x6544, symBinAddr: 0x10000A43C, symSize: 0x28 }
  - { offset: 0x1F057, size: 0x8, addend: 0x0, symName: __ZNSt15__uniq_ptr_dataI6WindowSt14default_deleteIS0_ELb1ELb1EECI1St15__uniq_ptr_implIS0_S2_EEPS0_, symObjAddr: 0x651C, symBinAddr: 0x10000A414, symSize: 0x28 }
  - { offset: 0x1F090, size: 0x8, addend: 0x0, symName: __ZSt7forwardIRA5_KcEOT_RNSt16remove_referenceIS3_E4typeE, symObjAddr: 0x6508, symBinAddr: 0x10000A400, symSize: 0x14 }
  - { offset: 0x1F0C6, size: 0x8, addend: 0x0, symName: __ZNSt8_Rb_treeIiSt4pairIKiSt10shared_ptrI5ShapeEESt10_Select1stIS5_ESt4lessIiESaIS5_EE5clearEv, symObjAddr: 0x64D0, symBinAddr: 0x10000A3C8, symSize: 0x38 }
  - { offset: 0x1F0F0, size: 0x8, addend: 0x0, symName: __ZNSt8_Rb_treeIiSt4pairIKiSt10shared_ptrI5ShapeEESt10_Select1stIS5_ESt4lessIiESaIS5_EE22_M_emplace_hint_uniqueIJRKSt21piecewise_construct_tSt5tupleIJRS1_EESG_IJEEEEESt17_Rb_tree_iteratorIS5_ESt23_Rb_tree_const_iteratorIS5_EDpOT_, symObjAddr: 0x63F8, symBinAddr: 0x10000A2F0, symSize: 0xD8 }
  - { offset: 0x1F1B9, size: 0x8, addend: 0x0, symName: __ZNSt5tupleIJRKiEEC1ILb1ELb1EEES1_, symObjAddr: 0x63D0, symBinAddr: 0x10000A2C8, symSize: 0x28 }
  - { offset: 0x1F1F2, size: 0x8, addend: 0x0, symName: __ZNSt8_Rb_treeIiSt4pairIKiSt10shared_ptrI5ShapeEESt10_Select1stIS5_ESt4lessIiESaIS5_EE3endEv, symObjAddr: 0x63A8, symBinAddr: 0x10000A2A0, symSize: 0x28 }
  - { offset: 0x1F21C, size: 0x8, addend: 0x0, symName: __ZNSt8_Rb_treeIiSt4pairIKiSt10shared_ptrI5ShapeEESt10_Select1stIS5_ESt4lessIiESaIS5_EE4findERS1_, symObjAddr: 0x6300, symBinAddr: 0x10000A1F8, symSize: 0xA8 }
  - { offset: 0x1F29C, size: 0x8, addend: 0x0, symName: __ZNSt8functionIFvvEEC1IZN8Renderer11setupShapesEvEUlvE11_vEEOT_, symObjAddr: 0x625C, symBinAddr: 0x10000A154, symSize: 0xA4 }
  - { offset: 0x1F2F8, size: 0x8, addend: 0x0, symName: __ZSt7forwardIZN8Renderer11setupShapesEvEUlvE11_EOT_RNSt16remove_referenceIS2_E4typeE, symObjAddr: 0x6248, symBinAddr: 0x10000A140, symSize: 0x14 }
  - { offset: 0x1F362, size: 0x8, addend: 0x0, symName: __ZNSt8functionIFvvEEC1IZN8Renderer11setupShapesEvEUlvE10_vEEOT_, symObjAddr: 0x61A4, symBinAddr: 0x10000A09C, symSize: 0xA4 }
  - { offset: 0x1F3BE, size: 0x8, addend: 0x0, symName: __ZSt7forwardIZN8Renderer11setupShapesEvEUlvE10_EOT_RNSt16remove_referenceIS2_E4typeE, symObjAddr: 0x6190, symBinAddr: 0x10000A088, symSize: 0x14 }
  - { offset: 0x1F428, size: 0x8, addend: 0x0, symName: __ZNSt8functionIFvvEEC1IZN8Renderer11setupShapesEvEUlvE9_vEEOT_, symObjAddr: 0x60EC, symBinAddr: 0x100009FE4, symSize: 0xA4 }
  - { offset: 0x1F484, size: 0x8, addend: 0x0, symName: __ZSt7forwardIZN8Renderer11setupShapesEvEUlvE9_EOT_RNSt16remove_referenceIS2_E4typeE, symObjAddr: 0x60D8, symBinAddr: 0x100009FD0, symSize: 0x14 }
  - { offset: 0x1F4EE, size: 0x8, addend: 0x0, symName: __ZNSt8functionIFvvEEC1IZN8Renderer11setupShapesEvEUlvE8_vEEOT_, symObjAddr: 0x6034, symBinAddr: 0x100009F2C, symSize: 0xA4 }
  - { offset: 0x1F54A, size: 0x8, addend: 0x0, symName: __ZSt7forwardIZN8Renderer11setupShapesEvEUlvE8_EOT_RNSt16remove_referenceIS2_E4typeE, symObjAddr: 0x6020, symBinAddr: 0x100009F18, symSize: 0x14 }
  - { offset: 0x1F5B4, size: 0x8, addend: 0x0, symName: __ZNSt8functionIFvvEEC1IZN8Renderer11setupShapesEvEUlvE7_vEEOT_, symObjAddr: 0x5F7C, symBinAddr: 0x100009E74, symSize: 0xA4 }
  - { offset: 0x1F610, size: 0x8, addend: 0x0, symName: __ZSt7forwardIZN8Renderer11setupShapesEvEUlvE7_EOT_RNSt16remove_referenceIS2_E4typeE, symObjAddr: 0x5F68, symBinAddr: 0x100009E60, symSize: 0x14 }
  - { offset: 0x1F67A, size: 0x8, addend: 0x0, symName: __ZNSt8functionIFvvEEC1IZN8Renderer11setupShapesEvEUlvE6_vEEOT_, symObjAddr: 0x5EC4, symBinAddr: 0x100009DBC, symSize: 0xA4 }
  - { offset: 0x1F6D6, size: 0x8, addend: 0x0, symName: __ZSt7forwardIZN8Renderer11setupShapesEvEUlvE6_EOT_RNSt16remove_referenceIS2_E4typeE, symObjAddr: 0x5EB0, symBinAddr: 0x100009DA8, symSize: 0x14 }
  - { offset: 0x1F740, size: 0x8, addend: 0x0, symName: __ZNSt8functionIFvvEEC1IZN8Renderer11setupShapesEvEUlvE5_vEEOT_, symObjAddr: 0x5E0C, symBinAddr: 0x100009D04, symSize: 0xA4 }
  - { offset: 0x1F79C, size: 0x8, addend: 0x0, symName: __ZSt7forwardIZN8Renderer11setupShapesEvEUlvE5_EOT_RNSt16remove_referenceIS2_E4typeE, symObjAddr: 0x5DF8, symBinAddr: 0x100009CF0, symSize: 0x14 }
  - { offset: 0x1F806, size: 0x8, addend: 0x0, symName: __ZNSt8functionIFvvEEC1IZN8Renderer11setupShapesEvEUlvE4_vEEOT_, symObjAddr: 0x5D54, symBinAddr: 0x100009C4C, symSize: 0xA4 }
  - { offset: 0x1F862, size: 0x8, addend: 0x0, symName: __ZSt7forwardIZN8Renderer11setupShapesEvEUlvE4_EOT_RNSt16remove_referenceIS2_E4typeE, symObjAddr: 0x5D40, symBinAddr: 0x100009C38, symSize: 0x14 }
  - { offset: 0x1F8CC, size: 0x8, addend: 0x0, symName: __ZNSt8functionIFvvEEC1IZN8Renderer11setupShapesEvEUlvE3_vEEOT_, symObjAddr: 0x5C9C, symBinAddr: 0x100009B94, symSize: 0xA4 }
  - { offset: 0x1F928, size: 0x8, addend: 0x0, symName: __ZSt7forwardIZN8Renderer11setupShapesEvEUlvE3_EOT_RNSt16remove_referenceIS2_E4typeE, symObjAddr: 0x5C88, symBinAddr: 0x100009B80, symSize: 0x14 }
  - { offset: 0x1F992, size: 0x8, addend: 0x0, symName: __ZNSt8functionIFvvEEC1IZN8Renderer11setupShapesEvEUlvE2_vEEOT_, symObjAddr: 0x5BE4, symBinAddr: 0x100009ADC, symSize: 0xA4 }
  - { offset: 0x1F9EE, size: 0x8, addend: 0x0, symName: __ZSt7forwardIZN8Renderer11setupShapesEvEUlvE2_EOT_RNSt16remove_referenceIS2_E4typeE, symObjAddr: 0x5BD0, symBinAddr: 0x100009AC8, symSize: 0x14 }
  - { offset: 0x1FA76, size: 0x8, addend: 0x0, symName: __ZNSt10shared_ptrI5ShapeEC1ISaIvEJRSt6vectorIfSaIfEES7_EEESt20_Sp_alloc_shared_tagIT_EDpOT0_, symObjAddr: 0x5B78, symBinAddr: 0x100009A70, symSize: 0x58 }
  - { offset: 0x1FADA, size: 0x8, addend: 0x0, symName: __ZSt7forwardIRSt6vectorIfSaIfEEEOT_RNSt16remove_referenceIS4_E4typeE, symObjAddr: 0x5B64, symBinAddr: 0x100009A5C, symSize: 0x14 }
  - { offset: 0x1FB10, size: 0x8, addend: 0x0, symName: __ZNSt6vectorIfSaIfEE19_M_range_initializeIPKfEEvT_S5_St20forward_iterator_tag, symObjAddr: 0x5A80, symBinAddr: 0x100009978, symSize: 0xE4 }
  - { offset: 0x1FC2E, size: 0x8, addend: 0x0, symName: __ZNKSt16initializer_listIfE3endEv, symObjAddr: 0x5A48, symBinAddr: 0x100009940, symSize: 0x38 }
  - { offset: 0x1FC58, size: 0x8, addend: 0x0, symName: __ZNKSt16initializer_listIfE5beginEv, symObjAddr: 0x5A30, symBinAddr: 0x100009928, symSize: 0x18 }
  - { offset: 0x1FCAA, size: 0x8, addend: 0x0, symName: __ZNSt12_Vector_baseIfSaIfEEC2ERKS0_, symObjAddr: 0x5A08, symBinAddr: 0x100009900, symSize: 0x28 }
  - { offset: 0x1FD23, size: 0x8, addend: 0x0, symName: __ZNSt8functionIFvvEEC1IZN8Renderer11setupShapesEvEUlvE1_vEEOT_, symObjAddr: 0x5964, symBinAddr: 0x10000985C, symSize: 0xA4 }
  - { offset: 0x1FD7F, size: 0x8, addend: 0x0, symName: __ZSt7forwardIZN8Renderer11setupShapesEvEUlvE1_EOT_RNSt16remove_referenceIS2_E4typeE, symObjAddr: 0x5950, symBinAddr: 0x100009848, symSize: 0x14 }
  - { offset: 0x1FDE9, size: 0x8, addend: 0x0, symName: __ZNSt8functionIFvvEEC1IZN8Renderer11setupShapesEvEUlvE0_vEEOT_, symObjAddr: 0x58AC, symBinAddr: 0x1000097A4, symSize: 0xA4 }
  - { offset: 0x1FE45, size: 0x8, addend: 0x0, symName: __ZSt7forwardIZN8Renderer11setupShapesEvEUlvE0_EOT_RNSt16remove_referenceIS2_E4typeE, symObjAddr: 0x5898, symBinAddr: 0x100009790, symSize: 0x14 }
  - { offset: 0x1FE7B, size: 0x8, addend: 0x0, symName: __ZNSt8_Rb_treeIiSt4pairIKiSt10shared_ptrI5ShapeEESt10_Select1stIS5_ESt4lessIiESaIS5_EE22_M_emplace_hint_uniqueIJRKSt21piecewise_construct_tSt5tupleIJOiEESG_IJEEEEESt17_Rb_tree_iteratorIS5_ESt23_Rb_tree_const_iteratorIS5_EDpOT_, symObjAddr: 0x57C0, symBinAddr: 0x1000096B8, symSize: 0xD8 }
  - { offset: 0x1FF3A, size: 0x8, addend: 0x0, symName: __ZNSt23_Rb_tree_const_iteratorISt4pairIKiSt10shared_ptrI5ShapeEEEC1ERKSt17_Rb_tree_iteratorIS5_E, symObjAddr: 0x5798, symBinAddr: 0x100009690, symSize: 0x28 }
  - { offset: 0x1FF65, size: 0x8, addend: 0x0, symName: __ZSt16forward_as_tupleIJiEESt5tupleIJDpOT_EES3_, symObjAddr: 0x5760, symBinAddr: 0x100009658, symSize: 0x38 }
  - { offset: 0x1FFA0, size: 0x8, addend: 0x0, symName: __ZSt4moveIRiEONSt16remove_referenceIT_E4typeEOS2_, symObjAddr: 0x574C, symBinAddr: 0x100009644, symSize: 0x14 }
  - { offset: 0x1FFD6, size: 0x8, addend: 0x0, symName: __ZNKSt4lessIiEclERKiS2_, symObjAddr: 0x5718, symBinAddr: 0x100009610, symSize: 0x34 }
  - { offset: 0x20022, size: 0x8, addend: 0x0, symName: __ZNKSt17_Rb_tree_iteratorISt4pairIKiSt10shared_ptrI5ShapeEEEdeEv, symObjAddr: 0x56F8, symBinAddr: 0x1000095F0, symSize: 0x20 }
  - { offset: 0x2004C, size: 0x8, addend: 0x0, symName: __ZNKSt3mapIiSt10shared_ptrI5ShapeESt4lessIiESaISt4pairIKiS2_EEE8key_compEv, symObjAddr: 0x56CC, symBinAddr: 0x1000095C4, symSize: 0x2C }
  - { offset: 0x20079, size: 0x8, addend: 0x0, symName: __ZSteqRKSt17_Rb_tree_iteratorISt4pairIKiSt10shared_ptrI5ShapeEEES8_, symObjAddr: 0x569C, symBinAddr: 0x100009594, symSize: 0x30 }
  - { offset: 0x200B8, size: 0x8, addend: 0x0, symName: __ZNSt3mapIiSt10shared_ptrI5ShapeESt4lessIiESaISt4pairIKiS2_EEE11lower_boundERS6_, symObjAddr: 0x5678, symBinAddr: 0x100009570, symSize: 0x24 }
  - { offset: 0x200F3, size: 0x8, addend: 0x0, symName: __ZNSt8functionIFvvEE4swapERS1_, symObjAddr: 0x5618, symBinAddr: 0x100009510, symSize: 0x60 }
  - { offset: 0x20162, size: 0x8, addend: 0x0, symName: __ZNSt8functionIFvvEEC1IZN8Renderer11setupShapesEvEUlvE_vEEOT_, symObjAddr: 0x5574, symBinAddr: 0x10000946C, symSize: 0xA4 }
  - { offset: 0x201BE, size: 0x8, addend: 0x0, symName: __ZSt7forwardIZN8Renderer11setupShapesEvEUlvE_EOT_RNSt16remove_referenceIS2_E4typeE, symObjAddr: 0x5560, symBinAddr: 0x100009458, symSize: 0x14 }
  - { offset: 0x201F4, size: 0x8, addend: 0x0, symName: __ZNSt16_Sp_counted_baseILN9__gnu_cxx12_Lock_policyE2EE15_M_add_ref_copyEv, symObjAddr: 0x54C8, symBinAddr: 0x1000093C0, symSize: 0x98 }
  - { offset: 0x202BB, size: 0x8, addend: 0x0, symName: __ZNKSt19__shared_ptr_accessI5ShapeLN9__gnu_cxx12_Lock_policyE2ELb0ELb0EE6_M_getEv, symObjAddr: 0x54AC, symBinAddr: 0x1000093A4, symSize: 0x1C }
  - { offset: 0x20341, size: 0x8, addend: 0x0, symName: __ZNSt10shared_ptrI5ShapeEC1ISaIvEJifN3glm3vecILi3EfLNS4_9qualifierE0EEEEEESt20_Sp_alloc_shared_tagIT_EDpOT0_, symObjAddr: 0x5438, symBinAddr: 0x100009330, symSize: 0x74 }
  - { offset: 0x203B3, size: 0x8, addend: 0x0, symName: __ZSt7forwardIN3glm3vecILi3EfLNS0_9qualifierE0EEEEOT_RNSt16remove_referenceIS4_E4typeE, symObjAddr: 0x5424, symBinAddr: 0x10000931C, symSize: 0x14 }
  - { offset: 0x203EC, size: 0x8, addend: 0x0, symName: __ZSt7forwardIfEOT_RNSt16remove_referenceIS0_E4typeE, symObjAddr: 0x5410, symBinAddr: 0x100009308, symSize: 0x14 }
  - { offset: 0x20422, size: 0x8, addend: 0x0, symName: __ZNKSt19__shared_ptr_accessI6ShaderLN9__gnu_cxx12_Lock_policyE2ELb0ELb0EE6_M_getEv, symObjAddr: 0x53F4, symBinAddr: 0x1000092EC, symSize: 0x1C }
  - { offset: 0x2044C, size: 0x8, addend: 0x0, symName: __ZNSt12__shared_ptrI6ShaderLN9__gnu_cxx12_Lock_policyE2EEaSEOS3_, symObjAddr: 0x53B0, symBinAddr: 0x1000092A8, symSize: 0x44 }
  - { offset: 0x2048A, size: 0x8, addend: 0x0, symName: __ZSt4moveIRSt10shared_ptrI6ShaderEEONSt16remove_referenceIT_E4typeEOS5_, symObjAddr: 0x539C, symBinAddr: 0x100009294, symSize: 0x14 }
  - { offset: 0x204FC, size: 0x8, addend: 0x0, symName: __ZNSt10shared_ptrI6ShaderEC1ISaIvEJEEESt20_Sp_alloc_shared_tagIT_EDpOT0_, symObjAddr: 0x5374, symBinAddr: 0x10000926C, symSize: 0x28 }
  - { offset: 0x2053F, size: 0x8, addend: 0x0, symName: __ZNSt8_Rb_treeIiSt4pairIKiSt10shared_ptrI5ShapeEESt10_Select1stIS5_ESt4lessIiESaIS5_EE8_M_beginEv, symObjAddr: 0x5358, symBinAddr: 0x100009250, symSize: 0x1C }
  - { offset: 0x20569, size: 0x8, addend: 0x0, symName: __ZNSt8_Rb_treeIiSt4pairIKiSt10shared_ptrI5ShapeEESt10_Select1stIS5_ESt4lessIiESaIS5_EE8_M_eraseEPSt13_Rb_tree_nodeIS5_E, symObjAddr: 0x52F4, symBinAddr: 0x1000091EC, symSize: 0x64 }
  - { offset: 0x205EC, size: 0x8, addend: 0x0, symName: __ZNSt15__new_allocatorISt13_Rb_tree_nodeISt4pairIKiSt10shared_ptrI5ShapeEEEED2Ev, symObjAddr: 0x52E0, symBinAddr: 0x1000091D8, symSize: 0x14 }
  - { offset: 0x2062C, size: 0x8, addend: 0x0, symName: __ZNSt20_Rb_tree_key_compareISt4lessIiEEC2Ev, symObjAddr: 0x52CC, symBinAddr: 0x1000091C4, symSize: 0x14 }
  - { offset: 0x20682, size: 0x8, addend: 0x0, symName: __ZNSt12__shared_ptrI6ShaderLN9__gnu_cxx12_Lock_policyE2EEC2Ev, symObjAddr: 0x52A0, symBinAddr: 0x100009198, symSize: 0x2C }
  - { offset: 0x206A8, size: 0x8, addend: 0x0, symName: __ZNSt16_Sp_counted_baseILN9__gnu_cxx12_Lock_policyE2EE19_M_release_last_useEv, symObjAddr: 0x51B0, symBinAddr: 0x1000090A8, symSize: 0xF0 }
  - { offset: 0x2079C, size: 0x8, addend: 0x0, symName: __ZNSt16_Sp_counted_baseILN9__gnu_cxx12_Lock_policyE2EED2Ev, symObjAddr: 0x5188, symBinAddr: 0x100009080, symSize: 0x28 }
  - { offset: 0x207C2, size: 0x8, addend: 0x0, symName: __ZNSt6vectorIfSaIfEE17_M_realloc_appendIJRKfEEEvDpOT_, symObjAddr: 0x4FCC, symBinAddr: 0x100008EC4, symSize: 0x1BC }
  - { offset: 0x20947, size: 0x8, addend: 0x0, symName: __ZZNSt6vectorIfSaIfEE17_M_realloc_appendIJRKfEEEvDpOT_EN6_GuardC1EPfmRS0_, symObjAddr: 0x4F28, symBinAddr: 0x100008E20, symSize: 0x44 }
  - { offset: 0x2098C, size: 0x8, addend: 0x0, symName: __ZZNSt6vectorIfSaIfEE17_M_realloc_appendIJRKfEEEvDpOT_EN6_GuardD1Ev, symObjAddr: 0x4F6C, symBinAddr: 0x100008E64, symSize: 0x60 }
  - { offset: 0x20ABF, size: 0x8, addend: 0x0, symName: __ZN3glm3vecILi3EfLNS_9qualifierE0EE6lengthEv, symObjAddr: 0x4F20, symBinAddr: 0x100008E18, symSize: 0x8 }
  - { offset: 0x20ADB, size: 0x8, addend: 0x0, symName: __ZNSt6vectorIfSaIfEE12emplace_backIJfEEERfDpOT_, symObjAddr: 0x4E48, symBinAddr: 0x100008D40, symSize: 0xD8 }
  - { offset: 0x20B8D, size: 0x8, addend: 0x0, symName: __ZSt4moveIRfEONSt16remove_referenceIT_E4typeEOS2_, symObjAddr: 0x4E34, symBinAddr: 0x100008D2C, symSize: 0x14 }
  - { offset: 0x20BC3, size: 0x8, addend: 0x0, symName: __ZNSt6vectorIfSaIfEE15_M_erase_at_endEPf, symObjAddr: 0x4DAC, symBinAddr: 0x100008CA4, symSize: 0x88 }
  - { offset: 0x20C58, size: 0x8, addend: 0x0, symName: __ZNKSt6vectorIfSaIfEE11_M_data_ptrIfEEPT_S4_, symObjAddr: 0x4D94, symBinAddr: 0x100008C8C, symSize: 0x18 }
  - { offset: 0x20C98, size: 0x8, addend: 0x0, symName: __ZSt22__uninitialized_copy_aIPfS0_fET0_T_S2_S1_RSaIT1_E, symObjAddr: 0x4D64, symBinAddr: 0x100008C5C, symSize: 0x30 }
  - { offset: 0x20D08, size: 0x8, addend: 0x0, symName: __ZSt4copyIPfS0_ET0_T_S2_S1_, symObjAddr: 0x4D1C, symBinAddr: 0x100008C14, symSize: 0x48 }
  - { offset: 0x20DA5, size: 0x8, addend: 0x0, symName: __ZNSt6vectorIfSaIfEE3endEv, symObjAddr: 0x4CF4, symBinAddr: 0x100008BEC, symSize: 0x28 }
  - { offset: 0x20DCB, size: 0x8, addend: 0x0, symName: __ZSt4copyIN9__gnu_cxx17__normal_iteratorIPKfSt6vectorIfSaIfEEEENS1_IPfS6_EEET0_T_SB_SA_, symObjAddr: 0x4CAC, symBinAddr: 0x100008BA4, symSize: 0x48 }
  - { offset: 0x20E2D, size: 0x8, addend: 0x0, symName: __ZNSt6vectorIfSaIfEE5beginEv, symObjAddr: 0x4C88, symBinAddr: 0x100008B80, symSize: 0x24 }
  - { offset: 0x20E57, size: 0x8, addend: 0x0, symName: __ZNSt6vectorIfSaIfEE20_M_allocate_and_copyIN9__gnu_cxx17__normal_iteratorIPKfS1_EEEEPfmT_S9_, symObjAddr: 0x4C04, symBinAddr: 0x100008AFC, symSize: 0x84 }
  - { offset: 0x20ECE, size: 0x8, addend: 0x0, symName: __ZNKSt6vectorIfSaIfEE3endEv, symObjAddr: 0x4BDC, symBinAddr: 0x100008AD4, symSize: 0x28 }
  - { offset: 0x20EF8, size: 0x8, addend: 0x0, symName: __ZNKSt6vectorIfSaIfEE5beginEv, symObjAddr: 0x4BB8, symBinAddr: 0x100008AB0, symSize: 0x24 }
  - { offset: 0x20F22, size: 0x8, addend: 0x0, symName: __ZNKSt6vectorIfSaIfEE8capacityEv, symObjAddr: 0x4B90, symBinAddr: 0x100008A88, symSize: 0x28 }
  - { offset: 0x20F8B, size: 0x8, addend: 0x0, symName: __ZNKSt12_Vector_baseIfSaIfEE19_M_get_Tp_allocatorEv, symObjAddr: 0x4B7C, symBinAddr: 0x100008A74, symSize: 0x14 }
  - { offset: 0x20FB5, size: 0x8, addend: 0x0, symName: __ZNSt12_Vector_baseIfSaIfEE13_M_deallocateEPfm, symObjAddr: 0x4B24, symBinAddr: 0x100008A1C, symSize: 0x58 }
  - { offset: 0x2105B, size: 0x8, addend: 0x0, symName: __ZNSt15__new_allocatorIfED2Ev, symObjAddr: 0x4B10, symBinAddr: 0x100008A08, symSize: 0x14 }
  - { offset: 0x2109B, size: 0x8, addend: 0x0, symName: __ZNSt12_Vector_baseIfSaIfEE17_Vector_impl_dataC2Ev, symObjAddr: 0x4AE4, symBinAddr: 0x1000089DC, symSize: 0x2C }
  - { offset: 0x210FC, size: 0x8, addend: 0x0, symName: __ZNSt12_Vector_baseIfSaIfEE19_M_get_Tp_allocatorEv, symObjAddr: 0x4AD0, symBinAddr: 0x1000089C8, symSize: 0x14 }
  - { offset: 0x21126, size: 0x8, addend: 0x0, symName: __ZNSt7__cxx1112basic_stringIcSt11char_traitsIcESaIcEE12_M_constructIPKcEEvT_S8_St20forward_iterator_tag, symObjAddr: 0x49D0, symBinAddr: 0x1000088C8, symSize: 0x100 }
  - { offset: 0x21230, size: 0x8, addend: 0x0, symName: __ZZNSt7__cxx1112basic_stringIcSt11char_traitsIcESaIcEE12_M_constructIPKcEEvT_S8_St20forward_iterator_tagEN6_GuardC1EPS4_, symObjAddr: 0x4978, symBinAddr: 0x100008870, symSize: 0x24 }
  - { offset: 0x21263, size: 0x8, addend: 0x0, symName: __ZZNSt7__cxx1112basic_stringIcSt11char_traitsIcESaIcEE12_M_constructIPKcEEvT_S8_St20forward_iterator_tagEN6_GuardD1Ev, symObjAddr: 0x499C, symBinAddr: 0x100008894, symSize: 0x34 }
  - { offset: 0x21363, size: 0x8, addend: 0x0, symName: __ZNSt15__new_allocatorIcED2Ev, symObjAddr: 0x4964, symBinAddr: 0x10000885C, symSize: 0x14 }
  - { offset: 0x213C7, size: 0x8, addend: 0x0, symName: __ZN9__gnu_cxx11char_traitsIcE2eqERKcS3_, symObjAddr: 0x4934, symBinAddr: 0x10000882C, symSize: 0x30 }
  - { offset: 0x21404, size: 0x8, addend: 0x0, symName: __ZNKSt10unique_ptrI8RendererSt14default_deleteIS0_EEptEv, symObjAddr: 0x4918, symBinAddr: 0x100008810, symSize: 0x1C }
  - { offset: 0x2142E, size: 0x8, addend: 0x0, symName: __ZNKSt10unique_ptrI6WindowSt14default_deleteIS0_EEptEv, symObjAddr: 0x48FC, symBinAddr: 0x1000087F4, symSize: 0x1C }
  - { offset: 0x2148D, size: 0x8, addend: 0x0, symName: __ZNSt10unique_ptrI8RendererSt14default_deleteIS0_EED1Ev, symObjAddr: 0x4894, symBinAddr: 0x10000878C, symSize: 0x68 }
  - { offset: 0x214DC, size: 0x8, addend: 0x0, symName: __ZSt11make_uniqueI8RendererJEENSt8__detail9_MakeUniqIT_E15__single_objectEDpOT0_, symObjAddr: 0x4854, symBinAddr: 0x10000874C, symSize: 0x40 }
  - { offset: 0x21542, size: 0x8, addend: 0x0, symName: __ZNSt10unique_ptrI6WindowSt14default_deleteIS0_EED1Ev, symObjAddr: 0x47EC, symBinAddr: 0x1000086E4, symSize: 0x68 }
  - { offset: 0x21591, size: 0x8, addend: 0x0, symName: __ZSt11make_uniqueI6WindowJiiRA5_KcEENSt8__detail9_MakeUniqIT_E15__single_objectEDpOT0_, symObjAddr: 0x46DC, symBinAddr: 0x1000085D4, symSize: 0x110 }
  - { offset: 0x21675, size: 0x8, addend: 0x0, symName: __ZNSt3mapIiSt10shared_ptrI5ShapeESt4lessIiESaISt4pairIKiS2_EEE5clearEv, symObjAddr: 0x46BC, symBinAddr: 0x1000085B4, symSize: 0x20 }
  - { offset: 0x2169F, size: 0x8, addend: 0x0, symName: __ZNSt3mapIiSt10shared_ptrI5ShapeESt4lessIiESaISt4pairIKiS2_EEEixERS6_, symObjAddr: 0x45D0, symBinAddr: 0x1000084C8, symSize: 0xEC }
  - { offset: 0x216E7, size: 0x8, addend: 0x0, symName: __ZStneRKSt17_Rb_tree_iteratorISt4pairIKiSt10shared_ptrI5ShapeEEES8_, symObjAddr: 0x45A0, symBinAddr: 0x100008498, symSize: 0x30 }
  - { offset: 0x21726, size: 0x8, addend: 0x0, symName: __ZNSt3mapIiSt10shared_ptrI5ShapeESt4lessIiESaISt4pairIKiS2_EEE3endEv, symObjAddr: 0x4584, symBinAddr: 0x10000847C, symSize: 0x1C }
  - { offset: 0x21750, size: 0x8, addend: 0x0, symName: __ZNSt3mapIiSt10shared_ptrI5ShapeESt4lessIiESaISt4pairIKiS2_EEE4findERS6_, symObjAddr: 0x4560, symBinAddr: 0x100008458, symSize: 0x24 }
  - { offset: 0x2178B, size: 0x8, addend: 0x0, symName: __ZNSt8functionIFvvEEaSIZN8Renderer11setupShapesEvEUlvE11_EENSt9enable_ifIXsrNS1_9_CallableIT_NS5_IXntsrSt7is_sameINSt9remove_cvINSt16remove_referenceIS7_E4typeEE4typeES1_E5valueESt5decayIS7_EE4type4typeESt15__invoke_resultIRSK_JEEEE5valueERS1_E4typeEOS7_, symObjAddr: 0x451C, symBinAddr: 0x100008414, symSize: 0x44 }
  - { offset: 0x217CF, size: 0x8, addend: 0x0, symName: __ZNSt8functionIFvvEEaSIZN8Renderer11setupShapesEvEUlvE10_EENSt9enable_ifIXsrNS1_9_CallableIT_NS5_IXntsrSt7is_sameINSt9remove_cvINSt16remove_referenceIS7_E4typeEE4typeES1_E5valueESt5decayIS7_EE4type4typeESt15__invoke_resultIRSK_JEEEE5valueERS1_E4typeEOS7_, symObjAddr: 0x44D8, symBinAddr: 0x1000083D0, symSize: 0x44 }
  - { offset: 0x21813, size: 0x8, addend: 0x0, symName: __ZNSt8functionIFvvEEaSIZN8Renderer11setupShapesEvEUlvE9_EENSt9enable_ifIXsrNS1_9_CallableIT_NS5_IXntsrSt7is_sameINSt9remove_cvINSt16remove_referenceIS7_E4typeEE4typeES1_E5valueESt5decayIS7_EE4type4typeESt15__invoke_resultIRSK_JEEEE5valueERS1_E4typeEOS7_, symObjAddr: 0x4494, symBinAddr: 0x10000838C, symSize: 0x44 }
  - { offset: 0x21857, size: 0x8, addend: 0x0, symName: __ZNSt8functionIFvvEEaSIZN8Renderer11setupShapesEvEUlvE8_EENSt9enable_ifIXsrNS1_9_CallableIT_NS5_IXntsrSt7is_sameINSt9remove_cvINSt16remove_referenceIS7_E4typeEE4typeES1_E5valueESt5decayIS7_EE4type4typeESt15__invoke_resultIRSK_JEEEE5valueERS1_E4typeEOS7_, symObjAddr: 0x4450, symBinAddr: 0x100008348, symSize: 0x44 }
  - { offset: 0x2189B, size: 0x8, addend: 0x0, symName: __ZNSt8functionIFvvEEaSIZN8Renderer11setupShapesEvEUlvE7_EENSt9enable_ifIXsrNS1_9_CallableIT_NS5_IXntsrSt7is_sameINSt9remove_cvINSt16remove_referenceIS7_E4typeEE4typeES1_E5valueESt5decayIS7_EE4type4typeESt15__invoke_resultIRSK_JEEEE5valueERS1_E4typeEOS7_, symObjAddr: 0x440C, symBinAddr: 0x100008304, symSize: 0x44 }
  - { offset: 0x218DF, size: 0x8, addend: 0x0, symName: __ZNSt8functionIFvvEEaSIZN8Renderer11setupShapesEvEUlvE6_EENSt9enable_ifIXsrNS1_9_CallableIT_NS5_IXntsrSt7is_sameINSt9remove_cvINSt16remove_referenceIS7_E4typeEE4typeES1_E5valueESt5decayIS7_EE4type4typeESt15__invoke_resultIRSK_JEEEE5valueERS1_E4typeEOS7_, symObjAddr: 0x43C8, symBinAddr: 0x1000082C0, symSize: 0x44 }
  - { offset: 0x21923, size: 0x8, addend: 0x0, symName: __ZNSt8functionIFvvEEaSIZN8Renderer11setupShapesEvEUlvE5_EENSt9enable_ifIXsrNS1_9_CallableIT_NS5_IXntsrSt7is_sameINSt9remove_cvINSt16remove_referenceIS7_E4typeEE4typeES1_E5valueESt5decayIS7_EE4type4typeESt15__invoke_resultIRSK_JEEEE5valueERS1_E4typeEOS7_, symObjAddr: 0x4384, symBinAddr: 0x10000827C, symSize: 0x44 }
  - { offset: 0x21967, size: 0x8, addend: 0x0, symName: __ZNSt8functionIFvvEEaSIZN8Renderer11setupShapesEvEUlvE4_EENSt9enable_ifIXsrNS1_9_CallableIT_NS5_IXntsrSt7is_sameINSt9remove_cvINSt16remove_referenceIS7_E4typeEE4typeES1_E5valueESt5decayIS7_EE4type4typeESt15__invoke_resultIRSK_JEEEE5valueERS1_E4typeEOS7_, symObjAddr: 0x4340, symBinAddr: 0x100008238, symSize: 0x44 }
  - { offset: 0x219AB, size: 0x8, addend: 0x0, symName: __ZNSt8functionIFvvEEaSIZN8Renderer11setupShapesEvEUlvE3_EENSt9enable_ifIXsrNS1_9_CallableIT_NS5_IXntsrSt7is_sameINSt9remove_cvINSt16remove_referenceIS7_E4typeEE4typeES1_E5valueESt5decayIS7_EE4type4typeESt15__invoke_resultIRSK_JEEEE5valueERS1_E4typeEOS7_, symObjAddr: 0x42FC, symBinAddr: 0x1000081F4, symSize: 0x44 }
  - { offset: 0x219EF, size: 0x8, addend: 0x0, symName: __ZNSt8functionIFvvEEaSIZN8Renderer11setupShapesEvEUlvE2_EENSt9enable_ifIXsrNS1_9_CallableIT_NS5_IXntsrSt7is_sameINSt9remove_cvINSt16remove_referenceIS7_E4typeEE4typeES1_E5valueESt5decayIS7_EE4type4typeESt15__invoke_resultIRSK_JEEEE5valueERS1_E4typeEOS7_, symObjAddr: 0x42B8, symBinAddr: 0x1000081B0, symSize: 0x44 }
  - { offset: 0x21A2F, size: 0x8, addend: 0x0, symName: __ZSt11make_sharedI5ShapeJRSt6vectorIfSaIfEES4_EESt10shared_ptrINSt9enable_ifIXntsrSt8is_arrayIT_E5valueES8_E4typeEEDpOT0_, symObjAddr: 0x4258, symBinAddr: 0x100008150, symSize: 0x60 }
  - { offset: 0x21AD2, size: 0x8, addend: 0x0, symName: __ZNSt6vectorIfSaIfEEC1ESt16initializer_listIfERKS0_, symObjAddr: 0x41E8, symBinAddr: 0x1000080E0, symSize: 0x70 }
  - { offset: 0x21B20, size: 0x8, addend: 0x0, symName: __ZNSt8functionIFvvEEaSIZN8Renderer11setupShapesEvEUlvE1_EENSt9enable_ifIXsrNS1_9_CallableIT_NS5_IXntsrSt7is_sameINSt9remove_cvINSt16remove_referenceIS7_E4typeEE4typeES1_E5valueESt5decayIS7_EE4type4typeESt15__invoke_resultIRSK_JEEEE5valueERS1_E4typeEOS7_, symObjAddr: 0x41A4, symBinAddr: 0x10000809C, symSize: 0x44 }
  - { offset: 0x21B64, size: 0x8, addend: 0x0, symName: __ZNSt8functionIFvvEEaSIZN8Renderer11setupShapesEvEUlvE0_EENSt9enable_ifIXsrNS1_9_CallableIT_NS5_IXntsrSt7is_sameINSt9remove_cvINSt16remove_referenceIS7_E4typeEE4typeES1_E5valueESt5decayIS7_EE4type4typeESt15__invoke_resultIRSK_JEEEE5valueERS1_E4typeEOS7_, symObjAddr: 0x4160, symBinAddr: 0x100008058, symSize: 0x44 }
  - { offset: 0x21BA8, size: 0x8, addend: 0x0, symName: __ZNSt14__shared_countILN9__gnu_cxx12_Lock_policyE2EEaSERKS2_, symObjAddr: 0x40E8, symBinAddr: 0x100007FE0, symSize: 0x78 }
  - { offset: 0x21BF4, size: 0x8, addend: 0x0, symName: __ZNSt3mapIiSt10shared_ptrI5ShapeESt4lessIiESaISt4pairIKiS2_EEEixEOi, symObjAddr: 0x3FEC, symBinAddr: 0x100007EE4, symSize: 0xFC }
  - { offset: 0x21C40, size: 0x8, addend: 0x0, symName: __ZNSt8functionIFvvEEaSIZN8Renderer11setupShapesEvEUlvE_EENSt9enable_ifIXsrNS1_9_CallableIT_NS5_IXntsrSt7is_sameINSt9remove_cvINSt16remove_referenceIS7_E4typeEE4typeES1_E5valueESt5decayIS7_EE4type4typeESt15__invoke_resultIRSK_JEEEE5valueERS1_E4typeEOS7_, symObjAddr: 0x3FA8, symBinAddr: 0x100007EA0, symSize: 0x44 }
  - { offset: 0x21CAC, size: 0x8, addend: 0x0, symName: __ZNSt14__shared_countILN9__gnu_cxx12_Lock_policyE2EEC1ERKS2_, symObjAddr: 0x3F60, symBinAddr: 0x100007E58, symSize: 0x48 }
  - { offset: 0x21CDB, size: 0x8, addend: 0x0, symName: __ZNKSt19__shared_ptr_accessI5ShapeLN9__gnu_cxx12_Lock_policyE2ELb0ELb0EEptEv, symObjAddr: 0x3F44, symBinAddr: 0x100007E3C, symSize: 0x1C }
  - { offset: 0x21D01, size: 0x8, addend: 0x0, symName: __ZSt11make_sharedI5ShapeJifN3glm3vecILi3EfLNS1_9qualifierE0EEEEESt10shared_ptrINSt9enable_ifIXntsrSt8is_arrayIT_E5valueES8_E4typeEEDpOT0_, symObjAddr: 0x3ED0, symBinAddr: 0x100007DC8, symSize: 0x74 }
  - { offset: 0x21DD8, size: 0x8, addend: 0x0, symName: __ZN3glm3vecILi3EfLNS_9qualifierE0EEC1IiiiEET_T0_T1_, symObjAddr: 0x3E80, symBinAddr: 0x100007D78, symSize: 0x50 }
  - { offset: 0x21E34, size: 0x8, addend: 0x0, symName: __ZNKSt19__shared_ptr_accessI6ShaderLN9__gnu_cxx12_Lock_policyE2ELb0ELb0EEptEv, symObjAddr: 0x3E64, symBinAddr: 0x100007D5C, symSize: 0x1C }
  - { offset: 0x21E5E, size: 0x8, addend: 0x0, symName: __ZNSt10shared_ptrI6ShaderEaSEOS1_, symObjAddr: 0x3E28, symBinAddr: 0x100007D20, symSize: 0x3C }
  - { offset: 0x21E95, size: 0x8, addend: 0x0, symName: __ZSt11make_sharedI6ShaderJEESt10shared_ptrINSt9enable_ifIXntsrSt8is_arrayIT_E5valueES4_E4typeEEDpOT0_, symObjAddr: 0x3DF8, symBinAddr: 0x100007CF0, symSize: 0x30 }
  - { offset: 0x21F08, size: 0x8, addend: 0x0, symName: __ZNSt8_Rb_treeIiSt4pairIKiSt10shared_ptrI5ShapeEESt10_Select1stIS5_ESt4lessIiESaIS5_EED1Ev, symObjAddr: 0x3DC4, symBinAddr: 0x100007CBC, symSize: 0x34 }
  - { offset: 0x21F68, size: 0x8, addend: 0x0, symName: __ZNSt8_Rb_treeIiSt4pairIKiSt10shared_ptrI5ShapeEESt10_Select1stIS5_ESt4lessIiESaIS5_EE13_Rb_tree_implIS9_Lb1EEC1Ev, symObjAddr: 0x3D80, symBinAddr: 0x100007C78, symSize: 0x44 }
  - { offset: 0x21FF9, size: 0x8, addend: 0x0, symName: __ZNSt14__shared_countILN9__gnu_cxx12_Lock_policyE2EED1Ev, symObjAddr: 0x3D4C, symBinAddr: 0x100007C44, symSize: 0x34 }
  - { offset: 0x22039, size: 0x8, addend: 0x0, symName: __ZNSt10shared_ptrI6ShaderEC1Ev, symObjAddr: 0x3D2C, symBinAddr: 0x100007C24, symSize: 0x20 }
  - { offset: 0x2205F, size: 0x8, addend: 0x0, symName: __ZNSt16_Sp_counted_baseILN9__gnu_cxx12_Lock_policyE2EE24_M_release_last_use_coldEv, symObjAddr: 0x3D0C, symBinAddr: 0x100007C04, symSize: 0x20 }
  - { offset: 0x22089, size: 0x8, addend: 0x0, symName: __ZNSt16_Sp_counted_baseILN9__gnu_cxx12_Lock_policyE2EE10_M_destroyEv, symObjAddr: 0x3CD8, symBinAddr: 0x100007BD0, symSize: 0x34 }
  - { offset: 0x220B3, size: 0x8, addend: 0x0, symName: __ZNSt6vectorIfSaIfEE9push_backERKf, symObjAddr: 0x3C10, symBinAddr: 0x100007B08, symSize: 0xC8 }
  - { offset: 0x2215A, size: 0x8, addend: 0x0, symName: __ZN3glm3vecILi3EfLNS_9qualifierE0EEixEi, symObjAddr: 0x3B50, symBinAddr: 0x100007A48, symSize: 0xC0 }
  - { offset: 0x221B1, size: 0x8, addend: 0x0, symName: __ZNSt6vectorIfSaIfEE9push_backEOf, symObjAddr: 0x3B20, symBinAddr: 0x100007A18, symSize: 0x30 }
  - { offset: 0x221EC, size: 0x8, addend: 0x0, symName: __ZNSt6vectorIfSaIfEE5clearEv, symObjAddr: 0x3AF4, symBinAddr: 0x1000079EC, symSize: 0x2C }
  - { offset: 0x22216, size: 0x8, addend: 0x0, symName: __ZNSt6vectorIfSaIfEE4dataEv, symObjAddr: 0x3ACC, symBinAddr: 0x1000079C4, symSize: 0x28 }
  - { offset: 0x22240, size: 0x8, addend: 0x0, symName: __ZNKSt8functionIFvvEEclEv, symObjAddr: 0x3A8C, symBinAddr: 0x100007984, symSize: 0x40 }
  - { offset: 0x2226A, size: 0x8, addend: 0x0, symName: __ZNKSt8functionIFvvEEcvbEv, symObjAddr: 0x3A68, symBinAddr: 0x100007960, symSize: 0x24 }
  - { offset: 0x22294, size: 0x8, addend: 0x0, symName: __ZNSt6vectorIfSaIfEEaSERKS1_, symObjAddr: 0x3720, symBinAddr: 0x100007618, symSize: 0x348 }
  - { offset: 0x22418, size: 0x8, addend: 0x0, symName: __ZSt11__addressofIKSt6vectorIfSaIfEEEPT_RS4_, symObjAddr: 0x370C, symBinAddr: 0x100007604, symSize: 0x14 }
  - { offset: 0x22468, size: 0x8, addend: 0x0, symName: __ZNSt8functionIFvvEEC1Ev, symObjAddr: 0x36D8, symBinAddr: 0x1000075D0, symSize: 0x34 }
  - { offset: 0x224AD, size: 0x8, addend: 0x0, symName: __ZNSt8functionIFvvEEC1EDn, symObjAddr: 0x36A0, symBinAddr: 0x100007598, symSize: 0x38 }
  - { offset: 0x224F6, size: 0x8, addend: 0x0, symName: __ZNSt14_Function_baseC2Ev, symObjAddr: 0x367C, symBinAddr: 0x100007574, symSize: 0x24 }
  - { offset: 0x22540, size: 0x8, addend: 0x0, symName: __ZNSt12_Vector_baseIfSaIfEED2Ev, symObjAddr: 0x362C, symBinAddr: 0x100007524, symSize: 0x50 }
  - { offset: 0x225A0, size: 0x8, addend: 0x0, symName: __ZNSt12_Vector_baseIfSaIfEE12_Vector_implC1Ev, symObjAddr: 0x35F4, symBinAddr: 0x1000074EC, symSize: 0x38 }
  - { offset: 0x22630, size: 0x8, addend: 0x0, symName: __ZNSt6vectorIfSaIfEED1Ev, symObjAddr: 0x3598, symBinAddr: 0x100007490, symSize: 0x5C }
  - { offset: 0x2268C, size: 0x8, addend: 0x0, symName: __ZNKSt6vectorIfSaIfEE4sizeEv, symObjAddr: 0x3570, symBinAddr: 0x100007468, symSize: 0x28 }
  - { offset: 0x226B9, size: 0x8, addend: 0x0, symName: __ZSt7forwardIiEOT_RNSt16remove_referenceIS0_E4typeE, symObjAddr: 0x355C, symBinAddr: 0x100007454, symSize: 0x14 }
  - { offset: 0x226EB, size: 0x8, addend: 0x0, symName: __ZSt3maxImERKT_S2_S2_, symObjAddr: 0x3524, symBinAddr: 0x10000741C, symSize: 0x38 }
  - { offset: 0x2278F, size: 0x8, addend: 0x0, symName: __ZNSt7__cxx1112basic_stringIcSt11char_traitsIcESaIcEEC1IS3_EEPKcRKS3_, symObjAddr: 0x3488, symBinAddr: 0x100007380, symSize: 0x9C }
  - { offset: 0x22858, size: 0x8, addend: 0x0, symName: __ZNSt7__cxx1112basic_stringIcSt11char_traitsIcESaIcEE12_Alloc_hiderD1Ev, symObjAddr: 0x345C, symBinAddr: 0x100007354, symSize: 0x2C }
  - { offset: 0x2289D, size: 0x8, addend: 0x0, symName: __ZN9__gnu_cxx11char_traitsIcE6lengthEPKc, symObjAddr: 0x3404, symBinAddr: 0x1000072FC, symSize: 0x58 }
  - { offset: 0x228DD, size: 0x8, addend: 0x0, symName: _main, symObjAddr: 0x3388, symBinAddr: 0x100007280, symSize: 0x7C }
  - { offset: 0x22908, size: 0x8, addend: 0x0, symName: __ZN11Application11keyCallbackEP10GLFWwindowiiii, symObjAddr: 0x30B4, symBinAddr: 0x100006FAC, symSize: 0x2D4 }
  - { offset: 0x22987, size: 0x8, addend: 0x0, symName: __ZN11Application7cleanupEv, symObjAddr: 0x308C, symBinAddr: 0x100006F84, symSize: 0x28 }
  - { offset: 0x229B3, size: 0x8, addend: 0x0, symName: __ZN11Application3runEv, symObjAddr: 0x3048, symBinAddr: 0x100006F40, symSize: 0x44 }
  - { offset: 0x229DF, size: 0x8, addend: 0x0, symName: __ZN11Application4initEv, symObjAddr: 0x2FC4, symBinAddr: 0x100006EBC, symSize: 0x84 }
  - { offset: 0x22A2F, size: 0x8, addend: 0x0, symName: __ZN11ApplicationD1Ev, symObjAddr: 0x2F90, symBinAddr: 0x100006E88, symSize: 0x34 }
  - { offset: 0x22A59, size: 0x8, addend: 0x0, symName: __ZN11ApplicationD2Ev, symObjAddr: 0x2F5C, symBinAddr: 0x100006E54, symSize: 0x34 }
  - { offset: 0x22A9B, size: 0x8, addend: 0x0, symName: __ZN11ApplicationC1Ev, symObjAddr: 0x2EE8, symBinAddr: 0x100006DE0, symSize: 0x74 }
  - { offset: 0x22AC5, size: 0x8, addend: 0x0, symName: __ZN11ApplicationC2Ev, symObjAddr: 0x2E74, symBinAddr: 0x100006D6C, symSize: 0x74 }
  - { offset: 0x22AE9, size: 0x8, addend: 0x0, symName: __ZN6Window23framebufferSizeCallbackEP10GLFWwindowii, symObjAddr: 0x2E40, symBinAddr: 0x100006D38, symSize: 0x34 }
  - { offset: 0x22B38, size: 0x8, addend: 0x0, symName: __ZNK6Window11shouldCloseEv, symObjAddr: 0x2E14, symBinAddr: 0x100006D0C, symSize: 0x2C }
  - { offset: 0x22B64, size: 0x8, addend: 0x0, symName: __ZN6Window4initEv, symObjAddr: 0x2C88, symBinAddr: 0x100006B80, symSize: 0x18C }
  - { offset: 0x22BB4, size: 0x8, addend: 0x0, symName: __ZN6WindowD1Ev, symObjAddr: 0x2C44, symBinAddr: 0x100006B3C, symSize: 0x44 }
  - { offset: 0x22BDE, size: 0x8, addend: 0x0, symName: __ZN6WindowD2Ev, symObjAddr: 0x2C00, symBinAddr: 0x100006AF8, symSize: 0x44 }
  - { offset: 0x22C47, size: 0x8, addend: 0x0, symName: __ZN6WindowC1EiiRKNSt7__cxx1112basic_stringIcSt11char_traitsIcESaIcEEE, symObjAddr: 0x2BAC, symBinAddr: 0x100006AA4, symSize: 0x54 }
  - { offset: 0x22C8C, size: 0x8, addend: 0x0, symName: __ZN6WindowC2EiiRKNSt7__cxx1112basic_stringIcSt11char_traitsIcESaIcEEE, symObjAddr: 0x2B58, symBinAddr: 0x100006A50, symSize: 0x54 }
  - { offset: 0x22CCD, size: 0x8, addend: 0x0, symName: __ZNK6Window9getHandleEv, symObjAddr: 0x2B40, symBinAddr: 0x100006A38, symSize: 0x18 }
  - { offset: 0x22CFA, size: 0x8, addend: 0x0, symName: __ZN8Renderer7cleanupEv, symObjAddr: 0x2B10, symBinAddr: 0x100006A08, symSize: 0x30 }
  - { offset: 0x22D27, size: 0x8, addend: 0x0, symName: __ZN8Renderer6renderEi, symObjAddr: 0x2A88, symBinAddr: 0x100006980, symSize: 0x88 }
  - { offset: 0x22D62, size: 0x8, addend: 0x0, symName: __ZNSt10shared_ptrI5ShapeEaSERKS1_, symObjAddr: 0x161C, symBinAddr: 0x100005514, symSize: 0x28 }
  - { offset: 0x22D95, size: 0x8, addend: 0x0, symName: __ZNSt12__shared_ptrI5ShapeLN9__gnu_cxx12_Lock_policyE2EEaSERKS3_, symObjAddr: 0x15DC, symBinAddr: 0x1000054D4, symSize: 0x40 }
  - { offset: 0x22DE7, size: 0x8, addend: 0x0, symName: __ZNSt10shared_ptrI5ShapeEC1ERKS1_, symObjAddr: 0x1594, symBinAddr: 0x10000548C, symSize: 0x28 }
  - { offset: 0x22E35, size: 0x8, addend: 0x0, symName: __ZNSt12__shared_ptrI5ShapeLN9__gnu_cxx12_Lock_policyE2EEC2ERKS3_, symObjAddr: 0x154C, symBinAddr: 0x100005444, symSize: 0x48 }
  - { offset: 0x22E8B, size: 0x8, addend: 0x0, symName: __ZNSt10shared_ptrI5ShapeED1Ev, symObjAddr: 0x14E0, symBinAddr: 0x1000053D8, symSize: 0x20 }
  - { offset: 0x22ED5, size: 0x8, addend: 0x0, symName: __ZNSt12__shared_ptrI5ShapeLN9__gnu_cxx12_Lock_policyE2EED2Ev, symObjAddr: 0x14BC, symBinAddr: 0x1000053B4, symSize: 0x24 }
  - { offset: 0x22EFD, size: 0x8, addend: 0x0, symName: __ZN8Renderer4initEv, symObjAddr: 0x138C, symBinAddr: 0x100005284, symSize: 0x130 }
  - { offset: 0x2304A, size: 0x8, addend: 0x0, symName: __ZN8RendererC1Ev, symObjAddr: 0x1354, symBinAddr: 0x10000524C, symSize: 0x38 }
  - { offset: 0x23074, size: 0x8, addend: 0x0, symName: __ZN8RendererC2Ev, symObjAddr: 0x131C, symBinAddr: 0x100005214, symSize: 0x38 }
  - { offset: 0x230BE, size: 0x8, addend: 0x0, symName: __ZNSt3mapIiSt10shared_ptrI5ShapeESt4lessIiESaISt4pairIKiS2_EEED1Ev, symObjAddr: 0x12FC, symBinAddr: 0x1000051F4, symSize: 0x20 }
  - { offset: 0x230FE, size: 0x8, addend: 0x0, symName: __ZNSt3mapIiSt10shared_ptrI5ShapeESt4lessIiESaISt4pairIKiS2_EEEC1Ev, symObjAddr: 0x12DC, symBinAddr: 0x1000051D4, symSize: 0x20 }
  - { offset: 0x2313E, size: 0x8, addend: 0x0, symName: __ZNSt8_Rb_treeIiSt4pairIKiSt10shared_ptrI5ShapeEESt10_Select1stIS5_ESt4lessIiESaIS5_EEC1Ev, symObjAddr: 0x12BC, symBinAddr: 0x1000051B4, symSize: 0x20 }
  - { offset: 0x2318C, size: 0x8, addend: 0x0, symName: __ZNSt8_Rb_treeIiSt4pairIKiSt10shared_ptrI5ShapeEESt10_Select1stIS5_ESt4lessIiESaIS5_EE13_Rb_tree_implIS9_Lb1EED1Ev, symObjAddr: 0x1290, symBinAddr: 0x100005188, symSize: 0x2C }
  - { offset: 0x231FD, size: 0x8, addend: 0x0, symName: __ZNSt10shared_ptrI6ShaderED1Ev, symObjAddr: 0x1270, symBinAddr: 0x100005168, symSize: 0x20 }
  - { offset: 0x23247, size: 0x8, addend: 0x0, symName: __ZNSt12__shared_ptrI6ShaderLN9__gnu_cxx12_Lock_policyE2EED1Ev, symObjAddr: 0x124C, symBinAddr: 0x100005144, symSize: 0x24 }
  - { offset: 0x23271, size: 0x8, addend: 0x0, symName: __ZNSt12__shared_ptrI6ShaderLN9__gnu_cxx12_Lock_policyE2EED2Ev, symObjAddr: 0x1228, symBinAddr: 0x100005120, symSize: 0x24 }
  - { offset: 0x23293, size: 0x8, addend: 0x0, symName: __ZNSt19_Sp_make_shared_tag5_S_tiEv, symObjAddr: 0x121C, symBinAddr: 0x100005114, symSize: 0xC }
  - { offset: 0x232B9, size: 0x8, addend: 0x0, symName: __ZZNSt19_Sp_make_shared_tag5_S_tiEvE5__tag, symObjAddr: 0xDE18, symBinAddr: 0x100013410, symSize: 0x0 }
  - { offset: 0x232DF, size: 0x8, addend: 0x0, symName: __ZNSt16_Sp_counted_baseILN9__gnu_cxx12_Lock_policyE2EE10_M_releaseEv, symObjAddr: 0x10A8, symBinAddr: 0x100004FA0, symSize: 0x174 }
  - { offset: 0x23444, size: 0x8, addend: 0x0, symName: __ZNSt15_Rb_tree_header8_M_resetEv, symObjAddr: 0x106C, symBinAddr: 0x100004F64, symSize: 0x3C }
  - { offset: 0x23488, size: 0x8, addend: 0x0, symName: __ZNSt15_Rb_tree_headerC2Ev, symObjAddr: 0x1044, symBinAddr: 0x100004F3C, symSize: 0x28 }
  - { offset: 0x234B0, size: 0x8, addend: 0x0, symName: __ZN5Shape30generateRegularPolygonVerticesEifN3glm3vecILi3EfLNS0_9qualifierE0EEE, symObjAddr: 0xEB0, symBinAddr: 0x100004DA8, symSize: 0x194 }
  - { offset: 0x23552, size: 0x8, addend: 0x0, symName: __ZN5Shape7cleanupEv, symObjAddr: 0xE28, symBinAddr: 0x100004D20, symSize: 0x88 }
  - { offset: 0x2357E, size: 0x8, addend: 0x0, symName: __ZN5Shape12setupBuffersEv, symObjAddr: 0xC6C, symBinAddr: 0x100004B64, symSize: 0x1BC }
  - { offset: 0x235AA, size: 0x8, addend: 0x0, symName: __ZN5Shape4drawEv, symObjAddr: 0xC04, symBinAddr: 0x100004AFC, symSize: 0x68 }
  - { offset: 0x2360A, size: 0x8, addend: 0x0, symName: __ZN5ShapeC1ESt6vectorIfSaIfEES2_, symObjAddr: 0xB9C, symBinAddr: 0x100004A94, symSize: 0x68 }
  - { offset: 0x23648, size: 0x8, addend: 0x0, symName: __ZN5ShapeC2ESt6vectorIfSaIfEES2_, symObjAddr: 0xB34, symBinAddr: 0x100004A2C, symSize: 0x68 }
  - { offset: 0x236C5, size: 0x8, addend: 0x0, symName: __ZN5ShapeC1EifN3glm3vecILi3EfLNS0_9qualifierE0EEE, symObjAddr: 0xA78, symBinAddr: 0x100004970, symSize: 0xBC }
  - { offset: 0x2370A, size: 0x8, addend: 0x0, symName: __ZN5ShapeC2EifN3glm3vecILi3EfLNS0_9qualifierE0EEE, symObjAddr: 0x9BC, symBinAddr: 0x1000048B4, symSize: 0xBC }
  - { offset: 0x23767, size: 0x8, addend: 0x0, symName: __ZN5ShapeC1Ev, symObjAddr: 0x960, symBinAddr: 0x100004858, symSize: 0x5C }
  - { offset: 0x23791, size: 0x8, addend: 0x0, symName: __ZN5ShapeC2Ev, symObjAddr: 0x904, symBinAddr: 0x1000047FC, symSize: 0x5C }
  - { offset: 0x237D1, size: 0x8, addend: 0x0, symName: __ZNSt6vectorIfSaIfEEC1Ev, symObjAddr: 0x8E4, symBinAddr: 0x1000047DC, symSize: 0x20 }
  - { offset: 0x23811, size: 0x8, addend: 0x0, symName: __ZNSt12_Vector_baseIfSaIfEEC2Ev, symObjAddr: 0x8C4, symBinAddr: 0x1000047BC, symSize: 0x20 }
  - { offset: 0x2385E, size: 0x8, addend: 0x0, symName: __ZNSt12_Vector_baseIfSaIfEE12_Vector_implD1Ev, symObjAddr: 0x898, symBinAddr: 0x100004790, symSize: 0x2C }
  - { offset: 0x238CD, size: 0x8, addend: 0x0, symName: __ZN5ShapeD1Ev, symObjAddr: 0x858, symBinAddr: 0x100004750, symSize: 0x40 }
  - { offset: 0x238F7, size: 0x8, addend: 0x0, symName: __ZN5ShapeD2Ev, symObjAddr: 0x818, symBinAddr: 0x100004710, symSize: 0x40 }
  - { offset: 0x23945, size: 0x8, addend: 0x0, symName: __ZNSt8functionIFvvEED1Ev, symObjAddr: 0x7F8, symBinAddr: 0x1000046F0, symSize: 0x20 }
  - { offset: 0x2396B, size: 0x8, addend: 0x0, symName: __ZNK5Shape14getVertexCountEv, symObjAddr: 0x7C8, symBinAddr: 0x1000046C0, symSize: 0x30 }
  - { offset: 0x23991, size: 0x8, addend: 0x0, symName: __ZSt3minImERKT_S2_S2_, symObjAddr: 0x790, symBinAddr: 0x100004688, symSize: 0x38 }
  - { offset: 0x239D7, size: 0x8, addend: 0x0, symName: __ZNKSt14_Function_base8_M_emptyEv, symObjAddr: 0x76C, symBinAddr: 0x100004664, symSize: 0x24 }
  - { offset: 0x23A25, size: 0x8, addend: 0x0, symName: __ZNSt14_Function_baseD2Ev, symObjAddr: 0x72C, symBinAddr: 0x100004624, symSize: 0x40 }
  - { offset: 0x23A4F, size: 0x8, addend: 0x0, symName: __ZNKSt9_Any_data9_M_accessEv, symObjAddr: 0x718, symBinAddr: 0x100004610, symSize: 0x14 }
  - { offset: 0x23A7D, size: 0x8, addend: 0x0, symName: __ZNSt9_Any_data9_M_accessEv, symObjAddr: 0x704, symBinAddr: 0x1000045FC, symSize: 0x14 }
  - { offset: 0x23AA9, size: 0x8, addend: 0x0, symName: __ZN6Shader7cleanupEv, symObjAddr: 0x6BC, symBinAddr: 0x1000045B4, symSize: 0x48 }
  - { offset: 0x23AD5, size: 0x8, addend: 0x0, symName: __ZN6Shader3useEv, symObjAddr: 0x68C, symBinAddr: 0x100004584, symSize: 0x30 }
  - { offset: 0x23B01, size: 0x8, addend: 0x0, symName: __ZN6Shader4loadERKNSt7__cxx1112basic_stringIcSt11char_traitsIcESaIcEEES7_, symObjAddr: 0x430, symBinAddr: 0x100004328, symSize: 0x25C }
  - { offset: 0x23BD5, size: 0x8, addend: 0x0, symName: __ZN6Shader13compileShaderEjRKNSt7__cxx1112basic_stringIcSt11char_traitsIcESaIcEEE, symObjAddr: 0x30C, symBinAddr: 0x100004204, symSize: 0x124 }
  - { offset: 0x23C78, size: 0x8, addend: 0x0, symName: __ZN6Shader8readFileERKNSt7__cxx1112basic_stringIcSt11char_traitsIcESaIcEEE, symObjAddr: 0x1D8, symBinAddr: 0x1000040D0, symSize: 0x134 }
  - { offset: 0x23D7F, size: 0x8, addend: 0x0, symName: __ZN6ShaderD1Ev, symObjAddr: 0x1B8, symBinAddr: 0x1000040B0, symSize: 0x20 }
  - { offset: 0x23DA9, size: 0x8, addend: 0x0, symName: __ZN6ShaderD2Ev, symObjAddr: 0x198, symBinAddr: 0x100004090, symSize: 0x20 }
  - { offset: 0x23DEB, size: 0x8, addend: 0x0, symName: __ZN6ShaderC1Ev, symObjAddr: 0x17C, symBinAddr: 0x100004074, symSize: 0x1C }
  - { offset: 0x23E15, size: 0x8, addend: 0x0, symName: __ZN6ShaderC2Ev, symObjAddr: 0x160, symBinAddr: 0x100004058, symSize: 0x1C }
  - { offset: 0x23F2D, size: 0x8, addend: 0x0, symName: __ZL18__gthread_active_pv, symObjAddr: 0x158, symBinAddr: 0x100004050, symSize: 0x8 }
  - { offset: 0x23F45, size: 0x8, addend: 0x0, symName: __ZNSt11char_traitsIcE6lengthEPKc, symObjAddr: 0x11C, symBinAddr: 0x100004014, symSize: 0x3C }
  - { offset: 0x23F90, size: 0x8, addend: 0x0, symName: __ZdlPvS_, symObjAddr: 0x104, symBinAddr: 0x100003FFC, symSize: 0x18 }
  - { offset: 0x23FC6, size: 0x8, addend: 0x0, symName: __ZnwmPv, symObjAddr: 0xEC, symBinAddr: 0x100003FE4, symSize: 0x18 }
  - { offset: 0x23FFC, size: 0x8, addend: 0x0, symName: __ZNKSt9type_infoeqERKS_, symObjAddr: 0x3C, symBinAddr: 0x100003F34, symSize: 0xB0 }
  - { offset: 0x2404F, size: 0x8, addend: 0x0, symName: __ZNKSt9type_info4nameEv, symObjAddr: 0x0, symBinAddr: 0x100003EF8, symSize: 0x3C }
...
